
External_Interrupt_Test_MCU.elf:     file format elf32-littlearm

Sections:
Idx Name          Size      VMA       LMA       File off  Algn
  0 .text         0000160c  00000000  00000000  00010000  2**2
                  CONTENTS, ALLOC, LOAD, READONLY, CODE
  1 .relocate     0000000c  20000000  0000160c  00020000  2**2
                  CONTENTS, ALLOC, LOAD, DATA
  2 .bss          00000130  2000000c  00001618  0002000c  2**2
                  ALLOC
  3 .stack        00002004  2000013c  00001748  0002000c  2**0
                  ALLOC
  4 .ARM.attributes 00000028  00000000  00000000  0002000c  2**0
                  CONTENTS, READONLY
  5 .comment      00000059  00000000  00000000  00020034  2**0
                  CONTENTS, READONLY
  6 .debug_frame  0000004c  00000000  00000000  00020090  2**2
                  CONTENTS, READONLY, DEBUGGING

Disassembly of section .text:

00000000 <exception_table>:
       0:	40 21 00 20 ed 12 00 00 e9 12 00 00 e9 12 00 00     @!. ............
	...
      2c:	e9 12 00 00 00 00 00 00 00 00 00 00 e9 12 00 00     ................
      3c:	01 14 00 00 e9 12 00 00 e9 12 00 00 e9 12 00 00     ................
      4c:	e9 12 00 00 95 0c 00 00 e9 12 00 00 e9 12 00 00     ................
      5c:	d5 08 00 00 e5 08 00 00 f5 08 00 00 05 09 00 00     ................
      6c:	15 09 00 00 25 09 00 00 e9 12 00 00 e9 12 00 00     ....%...........
      7c:	e9 12 00 00 e9 12 00 00 e9 12 00 00 e9 12 00 00     ................
      8c:	e9 12 00 00 e9 12 00 00 e9 12 00 00 e9 12 00 00     ................
      9c:	e9 12 00 00 e9 12 00 00                             ........

000000a4 <__do_global_dtors_aux>:
      a4:	b510      	push	{r4, lr}
      a6:	4c06      	ldr	r4, [pc, #24]	; (c0 <__do_global_dtors_aux+0x1c>)
      a8:	7823      	ldrb	r3, [r4, #0]
      aa:	2b00      	cmp	r3, #0
      ac:	d107      	bne.n	be <__do_global_dtors_aux+0x1a>
      ae:	4b05      	ldr	r3, [pc, #20]	; (c4 <__do_global_dtors_aux+0x20>)
      b0:	2b00      	cmp	r3, #0
      b2:	d002      	beq.n	ba <__do_global_dtors_aux+0x16>
      b4:	4804      	ldr	r0, [pc, #16]	; (c8 <__do_global_dtors_aux+0x24>)
      b6:	e000      	b.n	ba <__do_global_dtors_aux+0x16>
      b8:	bf00      	nop
      ba:	2301      	movs	r3, #1
      bc:	7023      	strb	r3, [r4, #0]
      be:	bd10      	pop	{r4, pc}
      c0:	2000000c 	.word	0x2000000c
      c4:	00000000 	.word	0x00000000
      c8:	0000160c 	.word	0x0000160c

000000cc <frame_dummy>:
      cc:	4b08      	ldr	r3, [pc, #32]	; (f0 <frame_dummy+0x24>)
      ce:	b510      	push	{r4, lr}
      d0:	2b00      	cmp	r3, #0
      d2:	d003      	beq.n	dc <frame_dummy+0x10>
      d4:	4907      	ldr	r1, [pc, #28]	; (f4 <frame_dummy+0x28>)
      d6:	4808      	ldr	r0, [pc, #32]	; (f8 <frame_dummy+0x2c>)
      d8:	e000      	b.n	dc <frame_dummy+0x10>
      da:	bf00      	nop
      dc:	4807      	ldr	r0, [pc, #28]	; (fc <frame_dummy+0x30>)
      de:	6803      	ldr	r3, [r0, #0]
      e0:	2b00      	cmp	r3, #0
      e2:	d100      	bne.n	e6 <frame_dummy+0x1a>
      e4:	bd10      	pop	{r4, pc}
      e6:	4b06      	ldr	r3, [pc, #24]	; (100 <frame_dummy+0x34>)
      e8:	2b00      	cmp	r3, #0
      ea:	d0fb      	beq.n	e4 <frame_dummy+0x18>
      ec:	4798      	blx	r3
      ee:	e7f9      	b.n	e4 <frame_dummy+0x18>
      f0:	00000000 	.word	0x00000000
      f4:	20000010 	.word	0x20000010
      f8:	0000160c 	.word	0x0000160c
      fc:	0000160c 	.word	0x0000160c
     100:	00000000 	.word	0x00000000

00000104 <_i2c_master_wait_for_sync>:
     104:	6802      	ldr	r2, [r0, #0]
     106:	8a13      	ldrh	r3, [r2, #16]
     108:	b21b      	sxth	r3, r3
     10a:	2b00      	cmp	r3, #0
     10c:	dbfb      	blt.n	106 <_i2c_master_wait_for_sync+0x2>
     10e:	4770      	bx	lr

00000110 <_i2c_master_address_response>:
     110:	2202      	movs	r2, #2
     112:	6803      	ldr	r3, [r0, #0]
     114:	7b99      	ldrb	r1, [r3, #14]
     116:	4211      	tst	r1, r2
     118:	d006      	beq.n	128 <_i2c_master_address_response+0x18>
     11a:	739a      	strb	r2, [r3, #14]
     11c:	8a1b      	ldrh	r3, [r3, #16]
     11e:	2041      	movs	r0, #65	; 0x41
     120:	4213      	tst	r3, r2
     122:	d10a      	bne.n	13a <_i2c_master_address_response+0x2a>
     124:	2000      	movs	r0, #0
     126:	e008      	b.n	13a <_i2c_master_address_response+0x2a>
     128:	8a1a      	ldrh	r2, [r3, #16]
     12a:	0752      	lsls	r2, r2, #29
     12c:	d5fa      	bpl.n	124 <_i2c_master_address_response+0x14>
     12e:	22c0      	movs	r2, #192	; 0xc0
     130:	2018      	movs	r0, #24
     132:	6859      	ldr	r1, [r3, #4]
     134:	0292      	lsls	r2, r2, #10
     136:	430a      	orrs	r2, r1
     138:	605a      	str	r2, [r3, #4]
     13a:	4770      	bx	lr

0000013c <_i2c_master_wait_for_bus>:
     13c:	b570      	push	{r4, r5, r6, lr}
     13e:	2200      	movs	r2, #0
     140:	2601      	movs	r6, #1
     142:	2402      	movs	r4, #2
     144:	6801      	ldr	r1, [r0, #0]
     146:	7b8b      	ldrb	r3, [r1, #14]
     148:	4033      	ands	r3, r6
     14a:	d102      	bne.n	152 <_i2c_master_wait_for_bus+0x16>
     14c:	7b8d      	ldrb	r5, [r1, #14]
     14e:	4225      	tst	r5, r4
     150:	d001      	beq.n	156 <_i2c_master_wait_for_bus+0x1a>
     152:	2000      	movs	r0, #0
     154:	e005      	b.n	162 <_i2c_master_wait_for_bus+0x26>
     156:	3201      	adds	r2, #1
     158:	8903      	ldrh	r3, [r0, #8]
     15a:	b292      	uxth	r2, r2
     15c:	4293      	cmp	r3, r2
     15e:	d8f2      	bhi.n	146 <_i2c_master_wait_for_bus+0xa>
     160:	2012      	movs	r0, #18
     162:	bd70      	pop	{r4, r5, r6, pc}

00000164 <_i2c_master_read_packet>:
     164:	2301      	movs	r3, #1
     166:	b5f0      	push	{r4, r5, r6, r7, lr}
     168:	880a      	ldrh	r2, [r1, #0]
     16a:	6805      	ldr	r5, [r0, #0]
     16c:	0052      	lsls	r2, r2, #1
     16e:	4313      	orrs	r3, r2
     170:	b085      	sub	sp, #20
     172:	9101      	str	r1, [sp, #4]
     174:	b2db      	uxtb	r3, r3
     176:	884c      	ldrh	r4, [r1, #2]
     178:	752b      	strb	r3, [r5, #20]
     17a:	4b2a      	ldr	r3, [pc, #168]	; (224 <_i2c_master_read_packet+0xc0>)
     17c:	0006      	movs	r6, r0
     17e:	4798      	blx	r3
     180:	686b      	ldr	r3, [r5, #4]
     182:	4a29      	ldr	r2, [pc, #164]	; (228 <_i2c_master_read_packet+0xc4>)
     184:	4013      	ands	r3, r2
     186:	606b      	str	r3, [r5, #4]
     188:	2800      	cmp	r0, #0
     18a:	d104      	bne.n	196 <_i2c_master_read_packet+0x32>
     18c:	0030      	movs	r0, r6
     18e:	4b27      	ldr	r3, [pc, #156]	; (22c <_i2c_master_read_packet+0xc8>)
     190:	4798      	blx	r3
     192:	1e07      	subs	r7, r0, #0
     194:	d013      	beq.n	1be <_i2c_master_read_packet+0x5a>
     196:	b005      	add	sp, #20
     198:	bdf0      	pop	{r4, r5, r6, r7, pc}
     19a:	2220      	movs	r2, #32
     19c:	8a2b      	ldrh	r3, [r5, #16]
     19e:	4213      	tst	r3, r2
     1a0:	d03d      	beq.n	21e <_i2c_master_read_packet+0xba>
     1a2:	7af3      	ldrb	r3, [r6, #11]
     1a4:	2b00      	cmp	r3, #0
     1a6:	d011      	beq.n	1cc <_i2c_master_read_packet+0x68>
     1a8:	9b02      	ldr	r3, [sp, #8]
     1aa:	2b00      	cmp	r3, #0
     1ac:	d10e      	bne.n	1cc <_i2c_master_read_packet+0x68>
     1ae:	2280      	movs	r2, #128	; 0x80
     1b0:	686b      	ldr	r3, [r5, #4]
     1b2:	02d2      	lsls	r2, r2, #11
     1b4:	4313      	orrs	r3, r2
     1b6:	606b      	str	r3, [r5, #4]
     1b8:	9700      	str	r7, [sp, #0]
     1ba:	9f00      	ldr	r7, [sp, #0]
     1bc:	9c02      	ldr	r4, [sp, #8]
     1be:	1e63      	subs	r3, r4, #1
     1c0:	b29b      	uxth	r3, r3
     1c2:	9302      	str	r3, [sp, #8]
     1c4:	2c00      	cmp	r4, #0
     1c6:	d1e8      	bne.n	19a <_i2c_master_read_packet+0x36>
     1c8:	9700      	str	r7, [sp, #0]
     1ca:	e00f      	b.n	1ec <_i2c_master_read_packet+0x88>
     1cc:	0030      	movs	r0, r6
     1ce:	4b18      	ldr	r3, [pc, #96]	; (230 <_i2c_master_read_packet+0xcc>)
     1d0:	4798      	blx	r3
     1d2:	1c7b      	adds	r3, r7, #1
     1d4:	b29b      	uxth	r3, r3
     1d6:	9a01      	ldr	r2, [sp, #4]
     1d8:	9300      	str	r3, [sp, #0]
     1da:	7e2b      	ldrb	r3, [r5, #24]
     1dc:	6852      	ldr	r2, [r2, #4]
     1de:	0030      	movs	r0, r6
     1e0:	55d3      	strb	r3, [r2, r7]
     1e2:	4b10      	ldr	r3, [pc, #64]	; (224 <_i2c_master_read_packet+0xc0>)
     1e4:	9203      	str	r2, [sp, #12]
     1e6:	4798      	blx	r3
     1e8:	1e04      	subs	r4, r0, #0
     1ea:	d0e6      	beq.n	1ba <_i2c_master_read_packet+0x56>
     1ec:	7ab3      	ldrb	r3, [r6, #10]
     1ee:	4f10      	ldr	r7, [pc, #64]	; (230 <_i2c_master_read_packet+0xcc>)
     1f0:	0030      	movs	r0, r6
     1f2:	2b00      	cmp	r3, #0
     1f4:	d00e      	beq.n	214 <_i2c_master_read_packet+0xb0>
     1f6:	47b8      	blx	r7
     1f8:	23c0      	movs	r3, #192	; 0xc0
     1fa:	686a      	ldr	r2, [r5, #4]
     1fc:	029b      	lsls	r3, r3, #10
     1fe:	4313      	orrs	r3, r2
     200:	606b      	str	r3, [r5, #4]
     202:	0030      	movs	r0, r6
     204:	47b8      	blx	r7
     206:	9b01      	ldr	r3, [sp, #4]
     208:	7e2a      	ldrb	r2, [r5, #24]
     20a:	685b      	ldr	r3, [r3, #4]
     20c:	9900      	ldr	r1, [sp, #0]
     20e:	0020      	movs	r0, r4
     210:	545a      	strb	r2, [r3, r1]
     212:	e7c0      	b.n	196 <_i2c_master_read_packet+0x32>
     214:	47b8      	blx	r7
     216:	2380      	movs	r3, #128	; 0x80
     218:	686a      	ldr	r2, [r5, #4]
     21a:	025b      	lsls	r3, r3, #9
     21c:	e7ef      	b.n	1fe <_i2c_master_read_packet+0x9a>
     21e:	2041      	movs	r0, #65	; 0x41
     220:	e7b9      	b.n	196 <_i2c_master_read_packet+0x32>
     222:	46c0      	nop			; (mov r8, r8)
     224:	0000013d 	.word	0x0000013d
     228:	fffbffff 	.word	0xfffbffff
     22c:	00000111 	.word	0x00000111
     230:	00000105 	.word	0x00000105

00000234 <_i2c_master_write_packet>:
     234:	b5f7      	push	{r0, r1, r2, r4, r5, r6, r7, lr}
     236:	000f      	movs	r7, r1
     238:	0005      	movs	r5, r0
     23a:	884b      	ldrh	r3, [r1, #2]
     23c:	6806      	ldr	r6, [r0, #0]
     23e:	9301      	str	r3, [sp, #4]
     240:	4b1e      	ldr	r3, [pc, #120]	; (2bc <_i2c_master_write_packet+0x88>)
     242:	4798      	blx	r3
     244:	883b      	ldrh	r3, [r7, #0]
     246:	0028      	movs	r0, r5
     248:	005b      	lsls	r3, r3, #1
     24a:	b2db      	uxtb	r3, r3
     24c:	7533      	strb	r3, [r6, #20]
     24e:	4b1c      	ldr	r3, [pc, #112]	; (2c0 <_i2c_master_write_packet+0x8c>)
     250:	4798      	blx	r3
     252:	1e04      	subs	r4, r0, #0
     254:	d115      	bne.n	282 <_i2c_master_write_packet+0x4e>
     256:	0028      	movs	r0, r5
     258:	4b1a      	ldr	r3, [pc, #104]	; (2c4 <_i2c_master_write_packet+0x90>)
     25a:	4798      	blx	r3
     25c:	1e04      	subs	r4, r0, #0
     25e:	d110      	bne.n	282 <_i2c_master_write_packet+0x4e>
     260:	9000      	str	r0, [sp, #0]
     262:	9b00      	ldr	r3, [sp, #0]
     264:	9a01      	ldr	r2, [sp, #4]
     266:	4293      	cmp	r3, r2
     268:	d10d      	bne.n	286 <_i2c_master_write_packet+0x52>
     26a:	2400      	movs	r4, #0
     26c:	7aab      	ldrb	r3, [r5, #10]
     26e:	2b00      	cmp	r3, #0
     270:	d007      	beq.n	282 <_i2c_master_write_packet+0x4e>
     272:	4b12      	ldr	r3, [pc, #72]	; (2bc <_i2c_master_write_packet+0x88>)
     274:	0028      	movs	r0, r5
     276:	4798      	blx	r3
     278:	23c0      	movs	r3, #192	; 0xc0
     27a:	6872      	ldr	r2, [r6, #4]
     27c:	029b      	lsls	r3, r3, #10
     27e:	4313      	orrs	r3, r2
     280:	6073      	str	r3, [r6, #4]
     282:	0020      	movs	r0, r4
     284:	bdfe      	pop	{r1, r2, r3, r4, r5, r6, r7, pc}
     286:	2220      	movs	r2, #32
     288:	8a33      	ldrh	r3, [r6, #16]
     28a:	4213      	tst	r3, r2
     28c:	d014      	beq.n	2b8 <_i2c_master_write_packet+0x84>
     28e:	0028      	movs	r0, r5
     290:	4b0a      	ldr	r3, [pc, #40]	; (2bc <_i2c_master_write_packet+0x88>)
     292:	4798      	blx	r3
     294:	687b      	ldr	r3, [r7, #4]
     296:	9a00      	ldr	r2, [sp, #0]
     298:	0028      	movs	r0, r5
     29a:	5c9b      	ldrb	r3, [r3, r2]
     29c:	7633      	strb	r3, [r6, #24]
     29e:	4b08      	ldr	r3, [pc, #32]	; (2c0 <_i2c_master_write_packet+0x8c>)
     2a0:	4798      	blx	r3
     2a2:	1e04      	subs	r4, r0, #0
     2a4:	d1e2      	bne.n	26c <_i2c_master_write_packet+0x38>
     2a6:	9a00      	ldr	r2, [sp, #0]
     2a8:	8a33      	ldrh	r3, [r6, #16]
     2aa:	3201      	adds	r2, #1
     2ac:	9200      	str	r2, [sp, #0]
     2ae:	2204      	movs	r2, #4
     2b0:	4213      	tst	r3, r2
     2b2:	d0d6      	beq.n	262 <_i2c_master_write_packet+0x2e>
     2b4:	241e      	movs	r4, #30
     2b6:	e7d9      	b.n	26c <_i2c_master_write_packet+0x38>
     2b8:	2441      	movs	r4, #65	; 0x41
     2ba:	e7e2      	b.n	282 <_i2c_master_write_packet+0x4e>
     2bc:	00000105 	.word	0x00000105
     2c0:	0000013d 	.word	0x0000013d
     2c4:	00000111 	.word	0x00000111

000002c8 <i2c_master_init>:
     2c8:	b5f0      	push	{r4, r5, r6, r7, lr}
     2ca:	0006      	movs	r6, r0
     2cc:	b085      	sub	sp, #20
     2ce:	6031      	str	r1, [r6, #0]
     2d0:	0008      	movs	r0, r1
     2d2:	4b4e      	ldr	r3, [pc, #312]	; (40c <i2c_master_init+0x144>)
     2d4:	0014      	movs	r4, r2
     2d6:	000f      	movs	r7, r1
     2d8:	4798      	blx	r3
     2da:	2501      	movs	r5, #1
     2dc:	1c83      	adds	r3, r0, #2
     2de:	409d      	lsls	r5, r3
     2e0:	002b      	movs	r3, r5
     2e2:	4a4b      	ldr	r2, [pc, #300]	; (410 <i2c_master_init+0x148>)
     2e4:	300d      	adds	r0, #13
     2e6:	6a11      	ldr	r1, [r2, #32]
     2e8:	b2c5      	uxtb	r5, r0
     2ea:	430b      	orrs	r3, r1
     2ec:	6213      	str	r3, [r2, #32]
     2ee:	7923      	ldrb	r3, [r4, #4]
     2f0:	aa02      	add	r2, sp, #8
     2f2:	7013      	strb	r3, [r2, #0]
     2f4:	0011      	movs	r1, r2
     2f6:	0028      	movs	r0, r5
     2f8:	4b46      	ldr	r3, [pc, #280]	; (414 <i2c_master_init+0x14c>)
     2fa:	4798      	blx	r3
     2fc:	0028      	movs	r0, r5
     2fe:	4b46      	ldr	r3, [pc, #280]	; (418 <i2c_master_init+0x150>)
     300:	4798      	blx	r3
     302:	4b46      	ldr	r3, [pc, #280]	; (41c <i2c_master_init+0x154>)
     304:	7920      	ldrb	r0, [r4, #4]
     306:	2100      	movs	r1, #0
     308:	4798      	blx	r3
     30a:	683b      	ldr	r3, [r7, #0]
     30c:	201c      	movs	r0, #28
     30e:	079b      	lsls	r3, r3, #30
     310:	d47a      	bmi.n	408 <i2c_master_init+0x140>
     312:	2301      	movs	r3, #1
     314:	683d      	ldr	r5, [r7, #0]
     316:	3817      	subs	r0, #23
     318:	401d      	ands	r5, r3
     31a:	d175      	bne.n	408 <i2c_master_init+0x140>
     31c:	4b3b      	ldr	r3, [pc, #236]	; (40c <i2c_master_init+0x144>)
     31e:	6830      	ldr	r0, [r6, #0]
     320:	4798      	blx	r3
     322:	493f      	ldr	r1, [pc, #252]	; (420 <i2c_master_init+0x158>)
     324:	4b3f      	ldr	r3, [pc, #252]	; (424 <i2c_master_init+0x15c>)
     326:	9001      	str	r0, [sp, #4]
     328:	4798      	blx	r3
     32a:	9b01      	ldr	r3, [sp, #4]
     32c:	7635      	strb	r5, [r6, #24]
     32e:	009a      	lsls	r2, r3, #2
     330:	4b3d      	ldr	r3, [pc, #244]	; (428 <i2c_master_init+0x160>)
     332:	7675      	strb	r5, [r6, #25]
     334:	50d6      	str	r6, [r2, r3]
     336:	1db3      	adds	r3, r6, #6
     338:	8375      	strh	r5, [r6, #26]
     33a:	83b5      	strh	r5, [r6, #28]
     33c:	77dd      	strb	r5, [r3, #31]
     33e:	2314      	movs	r3, #20
     340:	6235      	str	r5, [r6, #32]
     342:	603b      	str	r3, [r7, #0]
     344:	6837      	ldr	r7, [r6, #0]
     346:	4b31      	ldr	r3, [pc, #196]	; (40c <i2c_master_init+0x144>)
     348:	0038      	movs	r0, r7
     34a:	4798      	blx	r3
     34c:	2380      	movs	r3, #128	; 0x80
     34e:	aa02      	add	r2, sp, #8
     350:	7113      	strb	r3, [r2, #4]
     352:	7155      	strb	r5, [r2, #5]
     354:	0013      	movs	r3, r2
     356:	2201      	movs	r2, #1
     358:	9001      	str	r0, [sp, #4]
     35a:	6960      	ldr	r0, [r4, #20]
     35c:	71dd      	strb	r5, [r3, #7]
     35e:	719a      	strb	r2, [r3, #6]
     360:	69a5      	ldr	r5, [r4, #24]
     362:	2800      	cmp	r0, #0
     364:	d103      	bne.n	36e <i2c_master_init+0xa6>
     366:	0001      	movs	r1, r0
     368:	4b30      	ldr	r3, [pc, #192]	; (42c <i2c_master_init+0x164>)
     36a:	0038      	movs	r0, r7
     36c:	4798      	blx	r3
     36e:	ab02      	add	r3, sp, #8
     370:	7118      	strb	r0, [r3, #4]
     372:	2302      	movs	r3, #2
     374:	aa02      	add	r2, sp, #8
     376:	0c00      	lsrs	r0, r0, #16
     378:	7153      	strb	r3, [r2, #5]
     37a:	b2c0      	uxtb	r0, r0
     37c:	a903      	add	r1, sp, #12
     37e:	4b2c      	ldr	r3, [pc, #176]	; (430 <i2c_master_init+0x168>)
     380:	4798      	blx	r3
     382:	2d00      	cmp	r5, #0
     384:	d104      	bne.n	390 <i2c_master_init+0xc8>
     386:	2101      	movs	r1, #1
     388:	0038      	movs	r0, r7
     38a:	4b28      	ldr	r3, [pc, #160]	; (42c <i2c_master_init+0x164>)
     38c:	4798      	blx	r3
     38e:	0005      	movs	r5, r0
     390:	2202      	movs	r2, #2
     392:	ab02      	add	r3, sp, #8
     394:	0c28      	lsrs	r0, r5, #16
     396:	715a      	strb	r2, [r3, #5]
     398:	711d      	strb	r5, [r3, #4]
     39a:	b2c0      	uxtb	r0, r0
     39c:	4b24      	ldr	r3, [pc, #144]	; (430 <i2c_master_init+0x168>)
     39e:	a903      	add	r1, sp, #12
     3a0:	4798      	blx	r3
     3a2:	89a3      	ldrh	r3, [r4, #12]
     3a4:	80f3      	strh	r3, [r6, #6]
     3a6:	89e3      	ldrh	r3, [r4, #14]
     3a8:	8133      	strh	r3, [r6, #8]
     3aa:	7c22      	ldrb	r2, [r4, #16]
     3ac:	2380      	movs	r3, #128	; 0x80
     3ae:	2a00      	cmp	r2, #0
     3b0:	d106      	bne.n	3c0 <i2c_master_init+0xf8>
     3b2:	2502      	movs	r5, #2
     3b4:	4b1f      	ldr	r3, [pc, #124]	; (434 <i2c_master_init+0x16c>)
     3b6:	789b      	ldrb	r3, [r3, #2]
     3b8:	401d      	ands	r5, r3
     3ba:	1e6b      	subs	r3, r5, #1
     3bc:	419d      	sbcs	r5, r3
     3be:	01eb      	lsls	r3, r5, #7
     3c0:	68a5      	ldr	r5, [r4, #8]
     3c2:	431d      	orrs	r5, r3
     3c4:	7f23      	ldrb	r3, [r4, #28]
     3c6:	2b00      	cmp	r3, #0
     3c8:	d002      	beq.n	3d0 <i2c_master_init+0x108>
     3ca:	2380      	movs	r3, #128	; 0x80
     3cc:	05db      	lsls	r3, r3, #23
     3ce:	431d      	orrs	r5, r3
     3d0:	6a22      	ldr	r2, [r4, #32]
     3d2:	683b      	ldr	r3, [r7, #0]
     3d4:	9801      	ldr	r0, [sp, #4]
     3d6:	4313      	orrs	r3, r2
     3d8:	431d      	orrs	r5, r3
     3da:	2380      	movs	r3, #128	; 0x80
     3dc:	300d      	adds	r0, #13
     3de:	005b      	lsls	r3, r3, #1
     3e0:	603d      	str	r5, [r7, #0]
     3e2:	b2c0      	uxtb	r0, r0
     3e4:	607b      	str	r3, [r7, #4]
     3e6:	4b14      	ldr	r3, [pc, #80]	; (438 <i2c_master_init+0x170>)
     3e8:	4798      	blx	r3
     3ea:	21fa      	movs	r1, #250	; 0xfa
     3ec:	6823      	ldr	r3, [r4, #0]
     3ee:	00c9      	lsls	r1, r1, #3
     3f0:	4359      	muls	r1, r3
     3f2:	1e4b      	subs	r3, r1, #1
     3f4:	1818      	adds	r0, r3, r0
     3f6:	4b11      	ldr	r3, [pc, #68]	; (43c <i2c_master_init+0x174>)
     3f8:	4798      	blx	r3
     3fa:	1f43      	subs	r3, r0, #5
     3fc:	2040      	movs	r0, #64	; 0x40
     3fe:	2bff      	cmp	r3, #255	; 0xff
     400:	d802      	bhi.n	408 <i2c_master_init+0x140>
     402:	2000      	movs	r0, #0
     404:	b29b      	uxth	r3, r3
     406:	817b      	strh	r3, [r7, #10]
     408:	b005      	add	sp, #20
     40a:	bdf0      	pop	{r4, r5, r6, r7, pc}
     40c:	0000083d 	.word	0x0000083d
     410:	40000400 	.word	0x40000400
     414:	000011b9 	.word	0x000011b9
     418:	00001131 	.word	0x00001131
     41c:	0000069d 	.word	0x0000069d
     420:	00000531 	.word	0x00000531
     424:	00000871 	.word	0x00000871
     428:	20000068 	.word	0x20000068
     42c:	000006e1 	.word	0x000006e1
     430:	0000128d 	.word	0x0000128d
     434:	41002000 	.word	0x41002000
     438:	000011d5 	.word	0x000011d5
     43c:	00001475 	.word	0x00001475

00000440 <i2c_master_read_packet_wait>:
     440:	b510      	push	{r4, lr}
     442:	8b82      	ldrh	r2, [r0, #28]
     444:	0003      	movs	r3, r0
     446:	2005      	movs	r0, #5
     448:	2a00      	cmp	r2, #0
     44a:	d105      	bne.n	458 <i2c_master_read_packet_wait+0x18>
     44c:	3201      	adds	r2, #1
     44e:	729a      	strb	r2, [r3, #10]
     450:	72da      	strb	r2, [r3, #11]
     452:	0018      	movs	r0, r3
     454:	4b01      	ldr	r3, [pc, #4]	; (45c <i2c_master_read_packet_wait+0x1c>)
     456:	4798      	blx	r3
     458:	bd10      	pop	{r4, pc}
     45a:	46c0      	nop			; (mov r8, r8)
     45c:	00000165 	.word	0x00000165

00000460 <i2c_master_write_packet_wait>:
     460:	b510      	push	{r4, lr}
     462:	8b82      	ldrh	r2, [r0, #28]
     464:	0003      	movs	r3, r0
     466:	2005      	movs	r0, #5
     468:	2a00      	cmp	r2, #0
     46a:	d105      	bne.n	478 <i2c_master_write_packet_wait+0x18>
     46c:	3201      	adds	r2, #1
     46e:	729a      	strb	r2, [r3, #10]
     470:	72da      	strb	r2, [r3, #11]
     472:	0018      	movs	r0, r3
     474:	4b01      	ldr	r3, [pc, #4]	; (47c <i2c_master_write_packet_wait+0x1c>)
     476:	4798      	blx	r3
     478:	bd10      	pop	{r4, pc}
     47a:	46c0      	nop			; (mov r8, r8)
     47c:	00000235 	.word	0x00000235

00000480 <_i2c_master_wait_for_sync>:
     480:	6802      	ldr	r2, [r0, #0]
     482:	8a13      	ldrh	r3, [r2, #16]
     484:	b21b      	sxth	r3, r3
     486:	2b00      	cmp	r3, #0
     488:	dbfb      	blt.n	482 <_i2c_master_wait_for_sync+0x2>
     48a:	4770      	bx	lr

0000048c <_i2c_master_read>:
     48c:	b5f8      	push	{r3, r4, r5, r6, r7, lr}
     48e:	8b46      	ldrh	r6, [r0, #26]
     490:	8b83      	ldrh	r3, [r0, #28]
     492:	0004      	movs	r4, r0
     494:	1af6      	subs	r6, r6, r3
     496:	8b83      	ldrh	r3, [r0, #28]
     498:	6805      	ldr	r5, [r0, #0]
     49a:	3b01      	subs	r3, #1
     49c:	b29b      	uxth	r3, r3
     49e:	8383      	strh	r3, [r0, #28]
     4a0:	8b83      	ldrh	r3, [r0, #28]
     4a2:	b2b6      	uxth	r6, r6
     4a4:	4f12      	ldr	r7, [pc, #72]	; (4f0 <_i2c_master_read+0x64>)
     4a6:	2b00      	cmp	r3, #0
     4a8:	d11e      	bne.n	4e8 <_i2c_master_read+0x5c>
     4aa:	7ac3      	ldrb	r3, [r0, #11]
     4ac:	2b00      	cmp	r3, #0
     4ae:	d004      	beq.n	4ba <_i2c_master_read+0x2e>
     4b0:	2380      	movs	r3, #128	; 0x80
     4b2:	686a      	ldr	r2, [r5, #4]
     4b4:	02db      	lsls	r3, r3, #11
     4b6:	4313      	orrs	r3, r2
     4b8:	606b      	str	r3, [r5, #4]
     4ba:	7aa3      	ldrb	r3, [r4, #10]
     4bc:	0020      	movs	r0, r4
     4be:	2b00      	cmp	r3, #0
     4c0:	d00d      	beq.n	4de <_i2c_master_read+0x52>
     4c2:	47b8      	blx	r7
     4c4:	23c0      	movs	r3, #192	; 0xc0
     4c6:	686a      	ldr	r2, [r5, #4]
     4c8:	029b      	lsls	r3, r3, #10
     4ca:	4313      	orrs	r3, r2
     4cc:	606b      	str	r3, [r5, #4]
     4ce:	0020      	movs	r0, r4
     4d0:	47b8      	blx	r7
     4d2:	6a23      	ldr	r3, [r4, #32]
     4d4:	199e      	adds	r6, r3, r6
     4d6:	7e2b      	ldrb	r3, [r5, #24]
     4d8:	b2db      	uxtb	r3, r3
     4da:	7033      	strb	r3, [r6, #0]
     4dc:	bdf8      	pop	{r3, r4, r5, r6, r7, pc}
     4de:	47b8      	blx	r7
     4e0:	2380      	movs	r3, #128	; 0x80
     4e2:	686a      	ldr	r2, [r5, #4]
     4e4:	025b      	lsls	r3, r3, #9
     4e6:	e7f0      	b.n	4ca <_i2c_master_read+0x3e>
     4e8:	686b      	ldr	r3, [r5, #4]
     4ea:	4a02      	ldr	r2, [pc, #8]	; (4f4 <_i2c_master_read+0x68>)
     4ec:	4013      	ands	r3, r2
     4ee:	e7ed      	b.n	4cc <_i2c_master_read+0x40>
     4f0:	00000481 	.word	0x00000481
     4f4:	fffbffff 	.word	0xfffbffff

000004f8 <_i2c_master_write>:
     4f8:	b570      	push	{r4, r5, r6, lr}
     4fa:	6806      	ldr	r6, [r0, #0]
     4fc:	0004      	movs	r4, r0
     4fe:	8a33      	ldrh	r3, [r6, #16]
     500:	075b      	lsls	r3, r3, #29
     502:	d503      	bpl.n	50c <_i2c_master_write+0x14>
     504:	231e      	movs	r3, #30
     506:	3406      	adds	r4, #6
     508:	77e3      	strb	r3, [r4, #31]
     50a:	bd70      	pop	{r4, r5, r6, pc}
     50c:	8b45      	ldrh	r5, [r0, #26]
     50e:	8b83      	ldrh	r3, [r0, #28]
     510:	1aed      	subs	r5, r5, r3
     512:	8b83      	ldrh	r3, [r0, #28]
     514:	b2ad      	uxth	r5, r5
     516:	3b01      	subs	r3, #1
     518:	b29b      	uxth	r3, r3
     51a:	8383      	strh	r3, [r0, #28]
     51c:	4b03      	ldr	r3, [pc, #12]	; (52c <_i2c_master_write+0x34>)
     51e:	4798      	blx	r3
     520:	6a23      	ldr	r3, [r4, #32]
     522:	195d      	adds	r5, r3, r5
     524:	782b      	ldrb	r3, [r5, #0]
     526:	b2db      	uxtb	r3, r3
     528:	7633      	strb	r3, [r6, #24]
     52a:	e7ee      	b.n	50a <_i2c_master_write+0x12>
     52c:	00000481 	.word	0x00000481

00000530 <_i2c_master_interrupt_handler>:
     530:	b5f8      	push	{r3, r4, r5, r6, r7, lr}
     532:	4b56      	ldr	r3, [pc, #344]	; (68c <_i2c_master_interrupt_handler+0x15c>)
     534:	0080      	lsls	r0, r0, #2
     536:	58c4      	ldr	r4, [r0, r3]
     538:	7e63      	ldrb	r3, [r4, #25]
     53a:	7e27      	ldrb	r7, [r4, #24]
     53c:	6825      	ldr	r5, [r4, #0]
     53e:	401f      	ands	r7, r3
     540:	8b63      	ldrh	r3, [r4, #26]
     542:	1da6      	adds	r6, r4, #6
     544:	2b00      	cmp	r3, #0
     546:	d12d      	bne.n	5a4 <_i2c_master_interrupt_handler+0x74>
     548:	8ba3      	ldrh	r3, [r4, #28]
     54a:	2b00      	cmp	r3, #0
     54c:	d02a      	beq.n	5a4 <_i2c_master_interrupt_handler+0x74>
     54e:	2301      	movs	r3, #1
     550:	7baa      	ldrb	r2, [r5, #14]
     552:	421a      	tst	r2, r3
     554:	d005      	beq.n	562 <_i2c_master_interrupt_handler+0x32>
     556:	73ab      	strb	r3, [r5, #14]
     558:	8a2b      	ldrh	r3, [r5, #16]
     55a:	079b      	lsls	r3, r3, #30
     55c:	d501      	bpl.n	562 <_i2c_master_interrupt_handler+0x32>
     55e:	2341      	movs	r3, #65	; 0x41
     560:	77f3      	strb	r3, [r6, #31]
     562:	8a2b      	ldrh	r3, [r5, #16]
     564:	075b      	lsls	r3, r3, #29
     566:	d50e      	bpl.n	586 <_i2c_master_interrupt_handler+0x56>
     568:	2318      	movs	r3, #24
     56a:	77f3      	strb	r3, [r6, #31]
     56c:	2300      	movs	r3, #0
     56e:	83a3      	strh	r3, [r4, #28]
     570:	7aa3      	ldrb	r3, [r4, #10]
     572:	2b00      	cmp	r3, #0
     574:	d007      	beq.n	586 <_i2c_master_interrupt_handler+0x56>
     576:	4b46      	ldr	r3, [pc, #280]	; (690 <_i2c_master_interrupt_handler+0x160>)
     578:	0020      	movs	r0, r4
     57a:	4798      	blx	r3
     57c:	23c0      	movs	r3, #192	; 0xc0
     57e:	686a      	ldr	r2, [r5, #4]
     580:	029b      	lsls	r3, r3, #10
     582:	4313      	orrs	r3, r2
     584:	606b      	str	r3, [r5, #4]
     586:	8ba3      	ldrh	r3, [r4, #28]
     588:	b29b      	uxth	r3, r3
     58a:	8363      	strh	r3, [r4, #26]
     58c:	7ff3      	ldrb	r3, [r6, #31]
     58e:	2b05      	cmp	r3, #5
     590:	d12a      	bne.n	5e8 <_i2c_master_interrupt_handler+0xb8>
     592:	1d63      	adds	r3, r4, #5
     594:	7fdb      	ldrb	r3, [r3, #31]
     596:	0020      	movs	r0, r4
     598:	2b00      	cmp	r3, #0
     59a:	d000      	beq.n	59e <_i2c_master_interrupt_handler+0x6e>
     59c:	e06d      	b.n	67a <_i2c_master_interrupt_handler+0x14a>
     59e:	4b3d      	ldr	r3, [pc, #244]	; (694 <_i2c_master_interrupt_handler+0x164>)
     5a0:	4798      	blx	r3
     5a2:	e021      	b.n	5e8 <_i2c_master_interrupt_handler+0xb8>
     5a4:	8b63      	ldrh	r3, [r4, #26]
     5a6:	2b00      	cmp	r3, #0
     5a8:	d05a      	beq.n	660 <_i2c_master_interrupt_handler+0x130>
     5aa:	8ba3      	ldrh	r3, [r4, #28]
     5ac:	2b00      	cmp	r3, #0
     5ae:	d157      	bne.n	660 <_i2c_master_interrupt_handler+0x130>
     5b0:	7ff3      	ldrb	r3, [r6, #31]
     5b2:	2b05      	cmp	r3, #5
     5b4:	d154      	bne.n	660 <_i2c_master_interrupt_handler+0x130>
     5b6:	1d63      	adds	r3, r4, #5
     5b8:	7fdb      	ldrb	r3, [r3, #31]
     5ba:	b2db      	uxtb	r3, r3
     5bc:	2b00      	cmp	r3, #0
     5be:	d14f      	bne.n	660 <_i2c_master_interrupt_handler+0x130>
     5c0:	2203      	movs	r2, #3
     5c2:	732a      	strb	r2, [r5, #12]
     5c4:	8363      	strh	r3, [r4, #26]
     5c6:	77f3      	strb	r3, [r6, #31]
     5c8:	7aa3      	ldrb	r3, [r4, #10]
     5ca:	2b00      	cmp	r3, #0
     5cc:	d045      	beq.n	65a <_i2c_master_interrupt_handler+0x12a>
     5ce:	4b30      	ldr	r3, [pc, #192]	; (690 <_i2c_master_interrupt_handler+0x160>)
     5d0:	0020      	movs	r0, r4
     5d2:	4798      	blx	r3
     5d4:	23c0      	movs	r3, #192	; 0xc0
     5d6:	686a      	ldr	r2, [r5, #4]
     5d8:	029b      	lsls	r3, r3, #10
     5da:	4313      	orrs	r3, r2
     5dc:	606b      	str	r3, [r5, #4]
     5de:	07fb      	lsls	r3, r7, #31
     5e0:	d502      	bpl.n	5e8 <_i2c_master_interrupt_handler+0xb8>
     5e2:	68e3      	ldr	r3, [r4, #12]
     5e4:	0020      	movs	r0, r4
     5e6:	4798      	blx	r3
     5e8:	8b63      	ldrh	r3, [r4, #26]
     5ea:	2b00      	cmp	r3, #0
     5ec:	d016      	beq.n	61c <_i2c_master_interrupt_handler+0xec>
     5ee:	8ba3      	ldrh	r3, [r4, #28]
     5f0:	b29b      	uxth	r3, r3
     5f2:	2b00      	cmp	r3, #0
     5f4:	d112      	bne.n	61c <_i2c_master_interrupt_handler+0xec>
     5f6:	7ff2      	ldrb	r2, [r6, #31]
     5f8:	2a05      	cmp	r2, #5
     5fa:	d10f      	bne.n	61c <_i2c_master_interrupt_handler+0xec>
     5fc:	1d62      	adds	r2, r4, #5
     5fe:	7fd1      	ldrb	r1, [r2, #31]
     600:	2901      	cmp	r1, #1
     602:	d10b      	bne.n	61c <_i2c_master_interrupt_handler+0xec>
     604:	3102      	adds	r1, #2
     606:	7329      	strb	r1, [r5, #12]
     608:	8363      	strh	r3, [r4, #26]
     60a:	77f3      	strb	r3, [r6, #31]
     60c:	07bb      	lsls	r3, r7, #30
     60e:	d536      	bpl.n	67e <_i2c_master_interrupt_handler+0x14e>
     610:	7fd3      	ldrb	r3, [r2, #31]
     612:	2b01      	cmp	r3, #1
     614:	d133      	bne.n	67e <_i2c_master_interrupt_handler+0x14e>
     616:	6923      	ldr	r3, [r4, #16]
     618:	0020      	movs	r0, r4
     61a:	4798      	blx	r3
     61c:	7ff3      	ldrb	r3, [r6, #31]
     61e:	2b05      	cmp	r3, #5
     620:	d01a      	beq.n	658 <_i2c_master_interrupt_handler+0x128>
     622:	7ff3      	ldrb	r3, [r6, #31]
     624:	2b00      	cmp	r3, #0
     626:	d017      	beq.n	658 <_i2c_master_interrupt_handler+0x128>
     628:	2303      	movs	r3, #3
     62a:	732b      	strb	r3, [r5, #12]
     62c:	2300      	movs	r3, #0
     62e:	8363      	strh	r3, [r4, #26]
     630:	83a3      	strh	r3, [r4, #28]
     632:	7ff3      	ldrb	r3, [r6, #31]
     634:	2b41      	cmp	r3, #65	; 0x41
     636:	d00a      	beq.n	64e <_i2c_master_interrupt_handler+0x11e>
     638:	7aa3      	ldrb	r3, [r4, #10]
     63a:	2b00      	cmp	r3, #0
     63c:	d007      	beq.n	64e <_i2c_master_interrupt_handler+0x11e>
     63e:	4b14      	ldr	r3, [pc, #80]	; (690 <_i2c_master_interrupt_handler+0x160>)
     640:	0020      	movs	r0, r4
     642:	4798      	blx	r3
     644:	23e0      	movs	r3, #224	; 0xe0
     646:	686a      	ldr	r2, [r5, #4]
     648:	02db      	lsls	r3, r3, #11
     64a:	4313      	orrs	r3, r2
     64c:	606b      	str	r3, [r5, #4]
     64e:	077b      	lsls	r3, r7, #29
     650:	d502      	bpl.n	658 <_i2c_master_interrupt_handler+0x128>
     652:	6963      	ldr	r3, [r4, #20]
     654:	0020      	movs	r0, r4
     656:	4798      	blx	r3
     658:	bdf8      	pop	{r3, r4, r5, r6, r7, pc}
     65a:	2301      	movs	r3, #1
     65c:	73ab      	strb	r3, [r5, #14]
     65e:	e7be      	b.n	5de <_i2c_master_interrupt_handler+0xae>
     660:	8b63      	ldrh	r3, [r4, #26]
     662:	2b00      	cmp	r3, #0
     664:	d0c0      	beq.n	5e8 <_i2c_master_interrupt_handler+0xb8>
     666:	8ba3      	ldrh	r3, [r4, #28]
     668:	2b00      	cmp	r3, #0
     66a:	d0bd      	beq.n	5e8 <_i2c_master_interrupt_handler+0xb8>
     66c:	8a2b      	ldrh	r3, [r5, #16]
     66e:	069b      	lsls	r3, r3, #26
     670:	d500      	bpl.n	674 <_i2c_master_interrupt_handler+0x144>
     672:	e78e      	b.n	592 <_i2c_master_interrupt_handler+0x62>
     674:	2341      	movs	r3, #65	; 0x41
     676:	77f3      	strb	r3, [r6, #31]
     678:	e7b6      	b.n	5e8 <_i2c_master_interrupt_handler+0xb8>
     67a:	4b07      	ldr	r3, [pc, #28]	; (698 <_i2c_master_interrupt_handler+0x168>)
     67c:	e790      	b.n	5a0 <_i2c_master_interrupt_handler+0x70>
     67e:	07fb      	lsls	r3, r7, #31
     680:	d5cc      	bpl.n	61c <_i2c_master_interrupt_handler+0xec>
     682:	7fd3      	ldrb	r3, [r2, #31]
     684:	2b00      	cmp	r3, #0
     686:	d1c9      	bne.n	61c <_i2c_master_interrupt_handler+0xec>
     688:	68e3      	ldr	r3, [r4, #12]
     68a:	e7c5      	b.n	618 <_i2c_master_interrupt_handler+0xe8>
     68c:	20000068 	.word	0x20000068
     690:	00000481 	.word	0x00000481
     694:	000004f9 	.word	0x000004f9
     698:	0000048d 	.word	0x0000048d

0000069c <sercom_set_gclk_generator>:
     69c:	b537      	push	{r0, r1, r2, r4, r5, lr}
     69e:	4c0d      	ldr	r4, [pc, #52]	; (6d4 <sercom_set_gclk_generator+0x38>)
     6a0:	0005      	movs	r5, r0
     6a2:	7823      	ldrb	r3, [r4, #0]
     6a4:	2b00      	cmp	r3, #0
     6a6:	d001      	beq.n	6ac <sercom_set_gclk_generator+0x10>
     6a8:	2900      	cmp	r1, #0
     6aa:	d00c      	beq.n	6c6 <sercom_set_gclk_generator+0x2a>
     6ac:	a901      	add	r1, sp, #4
     6ae:	200c      	movs	r0, #12
     6b0:	4b09      	ldr	r3, [pc, #36]	; (6d8 <sercom_set_gclk_generator+0x3c>)
     6b2:	700d      	strb	r5, [r1, #0]
     6b4:	4798      	blx	r3
     6b6:	200c      	movs	r0, #12
     6b8:	4b08      	ldr	r3, [pc, #32]	; (6dc <sercom_set_gclk_generator+0x40>)
     6ba:	4798      	blx	r3
     6bc:	2301      	movs	r3, #1
     6be:	2000      	movs	r0, #0
     6c0:	7065      	strb	r5, [r4, #1]
     6c2:	7023      	strb	r3, [r4, #0]
     6c4:	bd3e      	pop	{r1, r2, r3, r4, r5, pc}
     6c6:	7863      	ldrb	r3, [r4, #1]
     6c8:	0008      	movs	r0, r1
     6ca:	42ab      	cmp	r3, r5
     6cc:	d0fa      	beq.n	6c4 <sercom_set_gclk_generator+0x28>
     6ce:	201d      	movs	r0, #29
     6d0:	e7f8      	b.n	6c4 <sercom_set_gclk_generator+0x28>
     6d2:	46c0      	nop			; (mov r8, r8)
     6d4:	20000028 	.word	0x20000028
     6d8:	000011b9 	.word	0x000011b9
     6dc:	00001131 	.word	0x00001131

000006e0 <_sercom_get_default_pad>:
     6e0:	4a39      	ldr	r2, [pc, #228]	; (7c8 <_sercom_get_default_pad+0xe8>)
     6e2:	0003      	movs	r3, r0
     6e4:	b500      	push	{lr}
     6e6:	0008      	movs	r0, r1
     6e8:	4293      	cmp	r3, r2
     6ea:	d033      	beq.n	754 <_sercom_get_default_pad+0x74>
     6ec:	d807      	bhi.n	6fe <_sercom_get_default_pad+0x1e>
     6ee:	4a37      	ldr	r2, [pc, #220]	; (7cc <_sercom_get_default_pad+0xec>)
     6f0:	4293      	cmp	r3, r2
     6f2:	d014      	beq.n	71e <_sercom_get_default_pad+0x3e>
     6f4:	4a36      	ldr	r2, [pc, #216]	; (7d0 <_sercom_get_default_pad+0xf0>)
     6f6:	4293      	cmp	r3, r2
     6f8:	d01f      	beq.n	73a <_sercom_get_default_pad+0x5a>
     6fa:	2300      	movs	r3, #0
     6fc:	e017      	b.n	72e <_sercom_get_default_pad+0x4e>
     6fe:	4a35      	ldr	r2, [pc, #212]	; (7d4 <_sercom_get_default_pad+0xf4>)
     700:	4293      	cmp	r3, r2
     702:	d03a      	beq.n	77a <_sercom_get_default_pad+0x9a>
     704:	4a34      	ldr	r2, [pc, #208]	; (7d8 <_sercom_get_default_pad+0xf8>)
     706:	4293      	cmp	r3, r2
     708:	d044      	beq.n	794 <_sercom_get_default_pad+0xb4>
     70a:	4a34      	ldr	r2, [pc, #208]	; (7dc <_sercom_get_default_pad+0xfc>)
     70c:	4293      	cmp	r3, r2
     70e:	d1f4      	bne.n	6fa <_sercom_get_default_pad+0x1a>
     710:	2300      	movs	r3, #0
     712:	2903      	cmp	r1, #3
     714:	d80b      	bhi.n	72e <_sercom_get_default_pad+0x4e>
     716:	f000 fea3 	bl	1460 <__gnu_thumb1_case_uqi>
     71a:	2a50      	.short	0x2a50
     71c:	2e2c      	.short	0x2e2c
     71e:	2300      	movs	r3, #0
     720:	2903      	cmp	r1, #3
     722:	d804      	bhi.n	72e <_sercom_get_default_pad+0x4e>
     724:	f000 fe9c 	bl	1460 <__gnu_thumb1_case_uqi>
     728:	07050243 	.word	0x07050243
     72c:	4b2c      	ldr	r3, [pc, #176]	; (7e0 <_sercom_get_default_pad+0x100>)
     72e:	0018      	movs	r0, r3
     730:	bd00      	pop	{pc}
     732:	4b2c      	ldr	r3, [pc, #176]	; (7e4 <_sercom_get_default_pad+0x104>)
     734:	e7fb      	b.n	72e <_sercom_get_default_pad+0x4e>
     736:	4b2c      	ldr	r3, [pc, #176]	; (7e8 <_sercom_get_default_pad+0x108>)
     738:	e7f9      	b.n	72e <_sercom_get_default_pad+0x4e>
     73a:	2300      	movs	r3, #0
     73c:	2903      	cmp	r1, #3
     73e:	d8f6      	bhi.n	72e <_sercom_get_default_pad+0x4e>
     740:	f000 fe8e 	bl	1460 <__gnu_thumb1_case_uqi>
     744:	06040237 	.word	0x06040237
     748:	4b28      	ldr	r3, [pc, #160]	; (7ec <_sercom_get_default_pad+0x10c>)
     74a:	e7f0      	b.n	72e <_sercom_get_default_pad+0x4e>
     74c:	4b28      	ldr	r3, [pc, #160]	; (7f0 <_sercom_get_default_pad+0x110>)
     74e:	e7ee      	b.n	72e <_sercom_get_default_pad+0x4e>
     750:	4b28      	ldr	r3, [pc, #160]	; (7f4 <_sercom_get_default_pad+0x114>)
     752:	e7ec      	b.n	72e <_sercom_get_default_pad+0x4e>
     754:	2300      	movs	r3, #0
     756:	2903      	cmp	r1, #3
     758:	d8e9      	bhi.n	72e <_sercom_get_default_pad+0x4e>
     75a:	f000 fe81 	bl	1460 <__gnu_thumb1_case_uqi>
     75e:	022c      	.short	0x022c
     760:	0604      	.short	0x0604
     762:	4b25      	ldr	r3, [pc, #148]	; (7f8 <_sercom_get_default_pad+0x118>)
     764:	e7e3      	b.n	72e <_sercom_get_default_pad+0x4e>
     766:	4b25      	ldr	r3, [pc, #148]	; (7fc <_sercom_get_default_pad+0x11c>)
     768:	e7e1      	b.n	72e <_sercom_get_default_pad+0x4e>
     76a:	4b25      	ldr	r3, [pc, #148]	; (800 <_sercom_get_default_pad+0x120>)
     76c:	e7df      	b.n	72e <_sercom_get_default_pad+0x4e>
     76e:	4b25      	ldr	r3, [pc, #148]	; (804 <_sercom_get_default_pad+0x124>)
     770:	e7dd      	b.n	72e <_sercom_get_default_pad+0x4e>
     772:	4b25      	ldr	r3, [pc, #148]	; (808 <_sercom_get_default_pad+0x128>)
     774:	e7db      	b.n	72e <_sercom_get_default_pad+0x4e>
     776:	4b25      	ldr	r3, [pc, #148]	; (80c <_sercom_get_default_pad+0x12c>)
     778:	e7d9      	b.n	72e <_sercom_get_default_pad+0x4e>
     77a:	2300      	movs	r3, #0
     77c:	2903      	cmp	r1, #3
     77e:	d8d6      	bhi.n	72e <_sercom_get_default_pad+0x4e>
     780:	f000 fe6e 	bl	1460 <__gnu_thumb1_case_uqi>
     784:	0604021d 	.word	0x0604021d
     788:	4b21      	ldr	r3, [pc, #132]	; (810 <_sercom_get_default_pad+0x130>)
     78a:	e7d0      	b.n	72e <_sercom_get_default_pad+0x4e>
     78c:	4b21      	ldr	r3, [pc, #132]	; (814 <_sercom_get_default_pad+0x134>)
     78e:	e7ce      	b.n	72e <_sercom_get_default_pad+0x4e>
     790:	4b21      	ldr	r3, [pc, #132]	; (818 <_sercom_get_default_pad+0x138>)
     792:	e7cc      	b.n	72e <_sercom_get_default_pad+0x4e>
     794:	2300      	movs	r3, #0
     796:	2903      	cmp	r1, #3
     798:	d8c9      	bhi.n	72e <_sercom_get_default_pad+0x4e>
     79a:	f000 fe61 	bl	1460 <__gnu_thumb1_case_uqi>
     79e:	0212      	.short	0x0212
     7a0:	0604      	.short	0x0604
     7a2:	4b1e      	ldr	r3, [pc, #120]	; (81c <_sercom_get_default_pad+0x13c>)
     7a4:	e7c3      	b.n	72e <_sercom_get_default_pad+0x4e>
     7a6:	4b1e      	ldr	r3, [pc, #120]	; (820 <_sercom_get_default_pad+0x140>)
     7a8:	e7c1      	b.n	72e <_sercom_get_default_pad+0x4e>
     7aa:	4b1e      	ldr	r3, [pc, #120]	; (824 <_sercom_get_default_pad+0x144>)
     7ac:	e7bf      	b.n	72e <_sercom_get_default_pad+0x4e>
     7ae:	4b1e      	ldr	r3, [pc, #120]	; (828 <_sercom_get_default_pad+0x148>)
     7b0:	e7bd      	b.n	72e <_sercom_get_default_pad+0x4e>
     7b2:	2303      	movs	r3, #3
     7b4:	e7bb      	b.n	72e <_sercom_get_default_pad+0x4e>
     7b6:	4b1d      	ldr	r3, [pc, #116]	; (82c <_sercom_get_default_pad+0x14c>)
     7b8:	e7b9      	b.n	72e <_sercom_get_default_pad+0x4e>
     7ba:	4b1d      	ldr	r3, [pc, #116]	; (830 <_sercom_get_default_pad+0x150>)
     7bc:	e7b7      	b.n	72e <_sercom_get_default_pad+0x4e>
     7be:	4b1d      	ldr	r3, [pc, #116]	; (834 <_sercom_get_default_pad+0x154>)
     7c0:	e7b5      	b.n	72e <_sercom_get_default_pad+0x4e>
     7c2:	4b1d      	ldr	r3, [pc, #116]	; (838 <_sercom_get_default_pad+0x158>)
     7c4:	e7b3      	b.n	72e <_sercom_get_default_pad+0x4e>
     7c6:	46c0      	nop			; (mov r8, r8)
     7c8:	42001000 	.word	0x42001000
     7cc:	42000800 	.word	0x42000800
     7d0:	42000c00 	.word	0x42000c00
     7d4:	42001800 	.word	0x42001800
     7d8:	42001c00 	.word	0x42001c00
     7dc:	42001400 	.word	0x42001400
     7e0:	00050003 	.word	0x00050003
     7e4:	00060003 	.word	0x00060003
     7e8:	00070003 	.word	0x00070003
     7ec:	00010003 	.word	0x00010003
     7f0:	001e0003 	.word	0x001e0003
     7f4:	001f0003 	.word	0x001f0003
     7f8:	00090003 	.word	0x00090003
     7fc:	000a0003 	.word	0x000a0003
     800:	000b0003 	.word	0x000b0003
     804:	00110003 	.word	0x00110003
     808:	00120003 	.word	0x00120003
     80c:	00130003 	.word	0x00130003
     810:	000d0003 	.word	0x000d0003
     814:	000e0003 	.word	0x000e0003
     818:	000f0003 	.word	0x000f0003
     81c:	00170003 	.word	0x00170003
     820:	00180003 	.word	0x00180003
     824:	00190003 	.word	0x00190003
     828:	00040003 	.word	0x00040003
     82c:	00080003 	.word	0x00080003
     830:	00100003 	.word	0x00100003
     834:	000c0003 	.word	0x000c0003
     838:	00160003 	.word	0x00160003

0000083c <_sercom_get_sercom_inst_index>:
     83c:	b570      	push	{r4, r5, r6, lr}
     83e:	b086      	sub	sp, #24
     840:	4669      	mov	r1, sp
     842:	4b09      	ldr	r3, [pc, #36]	; (868 <_sercom_get_sercom_inst_index+0x2c>)
     844:	466a      	mov	r2, sp
     846:	cb70      	ldmia	r3!, {r4, r5, r6}
     848:	c170      	stmia	r1!, {r4, r5, r6}
     84a:	cb70      	ldmia	r3!, {r4, r5, r6}
     84c:	c170      	stmia	r1!, {r4, r5, r6}
     84e:	2300      	movs	r3, #0
     850:	0099      	lsls	r1, r3, #2
     852:	5851      	ldr	r1, [r2, r1]
     854:	4281      	cmp	r1, r0
     856:	d102      	bne.n	85e <_sercom_get_sercom_inst_index+0x22>
     858:	b2d8      	uxtb	r0, r3
     85a:	b006      	add	sp, #24
     85c:	bd70      	pop	{r4, r5, r6, pc}
     85e:	3301      	adds	r3, #1
     860:	2b06      	cmp	r3, #6
     862:	d1f5      	bne.n	850 <_sercom_get_sercom_inst_index+0x14>
     864:	2000      	movs	r0, #0
     866:	e7f8      	b.n	85a <_sercom_get_sercom_inst_index+0x1e>
     868:	000015d4 	.word	0x000015d4

0000086c <_sercom_default_handler>:
     86c:	4770      	bx	lr
	...

00000870 <_sercom_set_handler>:
     870:	b5f0      	push	{r4, r5, r6, r7, lr}
     872:	4c09      	ldr	r4, [pc, #36]	; (898 <_sercom_set_handler+0x28>)
     874:	4a09      	ldr	r2, [pc, #36]	; (89c <_sercom_set_handler+0x2c>)
     876:	7823      	ldrb	r3, [r4, #0]
     878:	2b00      	cmp	r3, #0
     87a:	d109      	bne.n	890 <_sercom_set_handler+0x20>
     87c:	001e      	movs	r6, r3
     87e:	4f08      	ldr	r7, [pc, #32]	; (8a0 <_sercom_set_handler+0x30>)
     880:	4d08      	ldr	r5, [pc, #32]	; (8a4 <_sercom_set_handler+0x34>)
     882:	50d7      	str	r7, [r2, r3]
     884:	50ee      	str	r6, [r5, r3]
     886:	3304      	adds	r3, #4
     888:	2b18      	cmp	r3, #24
     88a:	d1fa      	bne.n	882 <_sercom_set_handler+0x12>
     88c:	3b17      	subs	r3, #23
     88e:	7023      	strb	r3, [r4, #0]
     890:	0080      	lsls	r0, r0, #2
     892:	5011      	str	r1, [r2, r0]
     894:	bdf0      	pop	{r4, r5, r6, r7, pc}
     896:	46c0      	nop			; (mov r8, r8)
     898:	2000002a 	.word	0x2000002a
     89c:	2000002c 	.word	0x2000002c
     8a0:	0000086d 	.word	0x0000086d
     8a4:	20000068 	.word	0x20000068

000008a8 <_sercom_get_interrupt_vector>:
     8a8:	b507      	push	{r0, r1, r2, lr}
     8aa:	2307      	movs	r3, #7
     8ac:	466a      	mov	r2, sp
     8ae:	7013      	strb	r3, [r2, #0]
     8b0:	3301      	adds	r3, #1
     8b2:	7053      	strb	r3, [r2, #1]
     8b4:	3301      	adds	r3, #1
     8b6:	7093      	strb	r3, [r2, #2]
     8b8:	3301      	adds	r3, #1
     8ba:	70d3      	strb	r3, [r2, #3]
     8bc:	3301      	adds	r3, #1
     8be:	7113      	strb	r3, [r2, #4]
     8c0:	3301      	adds	r3, #1
     8c2:	7153      	strb	r3, [r2, #5]
     8c4:	4b02      	ldr	r3, [pc, #8]	; (8d0 <_sercom_get_interrupt_vector+0x28>)
     8c6:	4798      	blx	r3
     8c8:	466b      	mov	r3, sp
     8ca:	5618      	ldrsb	r0, [r3, r0]
     8cc:	bd0e      	pop	{r1, r2, r3, pc}
     8ce:	46c0      	nop			; (mov r8, r8)
     8d0:	0000083d 	.word	0x0000083d

000008d4 <SERCOM0_Handler>:
     8d4:	b510      	push	{r4, lr}
     8d6:	4b02      	ldr	r3, [pc, #8]	; (8e0 <SERCOM0_Handler+0xc>)
     8d8:	2000      	movs	r0, #0
     8da:	681b      	ldr	r3, [r3, #0]
     8dc:	4798      	blx	r3
     8de:	bd10      	pop	{r4, pc}
     8e0:	2000002c 	.word	0x2000002c

000008e4 <SERCOM1_Handler>:
     8e4:	b510      	push	{r4, lr}
     8e6:	4b02      	ldr	r3, [pc, #8]	; (8f0 <SERCOM1_Handler+0xc>)
     8e8:	2001      	movs	r0, #1
     8ea:	685b      	ldr	r3, [r3, #4]
     8ec:	4798      	blx	r3
     8ee:	bd10      	pop	{r4, pc}
     8f0:	2000002c 	.word	0x2000002c

000008f4 <SERCOM2_Handler>:
     8f4:	b510      	push	{r4, lr}
     8f6:	4b02      	ldr	r3, [pc, #8]	; (900 <SERCOM2_Handler+0xc>)
     8f8:	2002      	movs	r0, #2
     8fa:	689b      	ldr	r3, [r3, #8]
     8fc:	4798      	blx	r3
     8fe:	bd10      	pop	{r4, pc}
     900:	2000002c 	.word	0x2000002c

00000904 <SERCOM3_Handler>:
     904:	b510      	push	{r4, lr}
     906:	4b02      	ldr	r3, [pc, #8]	; (910 <SERCOM3_Handler+0xc>)
     908:	2003      	movs	r0, #3
     90a:	68db      	ldr	r3, [r3, #12]
     90c:	4798      	blx	r3
     90e:	bd10      	pop	{r4, pc}
     910:	2000002c 	.word	0x2000002c

00000914 <SERCOM4_Handler>:
     914:	b510      	push	{r4, lr}
     916:	4b02      	ldr	r3, [pc, #8]	; (920 <SERCOM4_Handler+0xc>)
     918:	2004      	movs	r0, #4
     91a:	691b      	ldr	r3, [r3, #16]
     91c:	4798      	blx	r3
     91e:	bd10      	pop	{r4, pc}
     920:	2000002c 	.word	0x2000002c

00000924 <SERCOM5_Handler>:
     924:	b510      	push	{r4, lr}
     926:	4b02      	ldr	r3, [pc, #8]	; (930 <SERCOM5_Handler+0xc>)
     928:	2005      	movs	r0, #5
     92a:	695b      	ldr	r3, [r3, #20]
     92c:	4798      	blx	r3
     92e:	bd10      	pop	{r4, pc}
     930:	2000002c 	.word	0x2000002c

00000934 <configure_i2c_master>:
     934:	2364      	movs	r3, #100	; 0x64
     936:	2180      	movs	r1, #128	; 0x80
     938:	4a1b      	ldr	r2, [pc, #108]	; (9a8 <configure_i2c_master+0x74>)
     93a:	b570      	push	{r4, r5, r6, lr}
     93c:	6013      	str	r3, [r2, #0]
     93e:	2300      	movs	r3, #0
     940:	0389      	lsls	r1, r1, #14
     942:	6091      	str	r1, [r2, #8]
     944:	2101      	movs	r1, #1
     946:	7113      	strb	r3, [r2, #4]
     948:	7413      	strb	r3, [r2, #16]
     94a:	7713      	strb	r3, [r2, #28]
     94c:	6213      	str	r3, [r2, #32]
     94e:	33d7      	adds	r3, #215	; 0xd7
     950:	8493      	strh	r3, [r2, #36]	; 0x24
     952:	4b16      	ldr	r3, [pc, #88]	; (9ac <configure_i2c_master+0x78>)
     954:	4d16      	ldr	r5, [pc, #88]	; (9b0 <configure_i2c_master+0x7c>)
     956:	81d3      	strh	r3, [r2, #14]
     958:	4b16      	ldr	r3, [pc, #88]	; (9b4 <configure_i2c_master+0x80>)
     95a:	4249      	negs	r1, r1
     95c:	6153      	str	r3, [r2, #20]
     95e:	4b16      	ldr	r3, [pc, #88]	; (9b8 <configure_i2c_master+0x84>)
     960:	8191      	strh	r1, [r2, #12]
     962:	6193      	str	r3, [r2, #24]
     964:	4915      	ldr	r1, [pc, #84]	; (9bc <configure_i2c_master+0x88>)
     966:	0028      	movs	r0, r5
     968:	4b15      	ldr	r3, [pc, #84]	; (9c0 <configure_i2c_master+0x8c>)
     96a:	4798      	blx	r3
     96c:	682c      	ldr	r4, [r5, #0]
     96e:	8a23      	ldrh	r3, [r4, #16]
     970:	b21b      	sxth	r3, r3
     972:	2b00      	cmp	r3, #0
     974:	dbfb      	blt.n	96e <configure_i2c_master+0x3a>
     976:	2302      	movs	r3, #2
     978:	6822      	ldr	r2, [r4, #0]
     97a:	4313      	orrs	r3, r2
     97c:	6023      	str	r3, [r4, #0]
     97e:	6828      	ldr	r0, [r5, #0]
     980:	4b10      	ldr	r3, [pc, #64]	; (9c4 <configure_i2c_master+0x90>)
     982:	4798      	blx	r3
     984:	231f      	movs	r3, #31
     986:	4018      	ands	r0, r3
     988:	3b1e      	subs	r3, #30
     98a:	4083      	lsls	r3, r0
     98c:	4a0e      	ldr	r2, [pc, #56]	; (9c8 <configure_i2c_master+0x94>)
     98e:	6013      	str	r3, [r2, #0]
     990:	2300      	movs	r3, #0
     992:	2210      	movs	r2, #16
     994:	88e8      	ldrh	r0, [r5, #6]
     996:	8a21      	ldrh	r1, [r4, #16]
     998:	4211      	tst	r1, r2
     99a:	d103      	bne.n	9a4 <configure_i2c_master+0x70>
     99c:	3301      	adds	r3, #1
     99e:	4283      	cmp	r3, r0
     9a0:	d3f9      	bcc.n	996 <configure_i2c_master+0x62>
     9a2:	8222      	strh	r2, [r4, #16]
     9a4:	bd70      	pop	{r4, r5, r6, pc}
     9a6:	46c0      	nop			; (mov r8, r8)
     9a8:	200000c8 	.word	0x200000c8
     9ac:	00002710 	.word	0x00002710
     9b0:	200000a0 	.word	0x200000a0
     9b4:	00080003 	.word	0x00080003
     9b8:	00090003 	.word	0x00090003
     9bc:	42001000 	.word	0x42001000
     9c0:	000002c9 	.word	0x000002c9
     9c4:	000008a9 	.word	0x000008a9
     9c8:	e000e100 	.word	0xe000e100

000009cc <i2c_slWrite>:
     9cc:	b5b0      	push	{r4, r5, r7, lr}
     9ce:	466c      	mov	r4, sp
     9d0:	1dd3      	adds	r3, r2, #7
     9d2:	08db      	lsrs	r3, r3, #3
     9d4:	00db      	lsls	r3, r3, #3
     9d6:	1ae3      	subs	r3, r4, r3
     9d8:	af00      	add	r7, sp, #0
     9da:	469d      	mov	sp, r3
     9dc:	2300      	movs	r3, #0
     9de:	466d      	mov	r5, sp
     9e0:	b292      	uxth	r2, r2
     9e2:	b29c      	uxth	r4, r3
     9e4:	42a2      	cmp	r2, r4
     9e6:	d80f      	bhi.n	a08 <i2c_slWrite+0x3c>
     9e8:	4c0e      	ldr	r4, [pc, #56]	; (a24 <i2c_slWrite+0x58>)
     9ea:	4b0f      	ldr	r3, [pc, #60]	; (a28 <i2c_slWrite+0x5c>)
     9ec:	8062      	strh	r2, [r4, #2]
     9ee:	2200      	movs	r2, #0
     9f0:	8020      	strh	r0, [r4, #0]
     9f2:	6065      	str	r5, [r4, #4]
     9f4:	721a      	strb	r2, [r3, #8]
     9f6:	725a      	strb	r2, [r3, #9]
     9f8:	0021      	movs	r1, r4
     9fa:	480c      	ldr	r0, [pc, #48]	; (a2c <i2c_slWrite+0x60>)
     9fc:	4b0c      	ldr	r3, [pc, #48]	; (a30 <i2c_slWrite+0x64>)
     9fe:	4798      	blx	r3
     a00:	2800      	cmp	r0, #0
     a02:	d105      	bne.n	a10 <i2c_slWrite+0x44>
     a04:	46bd      	mov	sp, r7
     a06:	bdb0      	pop	{r4, r5, r7, pc}
     a08:	5ccc      	ldrb	r4, [r1, r3]
     a0a:	54ec      	strb	r4, [r5, r3]
     a0c:	3301      	adds	r3, #1
     a0e:	e7e8      	b.n	9e2 <i2c_slWrite+0x16>
     a10:	4a08      	ldr	r2, [pc, #32]	; (a34 <i2c_slWrite+0x68>)
     a12:	8813      	ldrh	r3, [r2, #0]
     a14:	1c59      	adds	r1, r3, #1
     a16:	8011      	strh	r1, [r2, #0]
     a18:	2b0a      	cmp	r3, #10
     a1a:	d1ed      	bne.n	9f8 <i2c_slWrite+0x2c>
     a1c:	2001      	movs	r0, #1
     a1e:	4240      	negs	r0, r0
     a20:	e7f0      	b.n	a04 <i2c_slWrite+0x38>
     a22:	46c0      	nop			; (mov r8, r8)
     a24:	20000080 	.word	0x20000080
     a28:	2000008c 	.word	0x2000008c
     a2c:	200000a0 	.word	0x200000a0
     a30:	00000461 	.word	0x00000461
     a34:	20000044 	.word	0x20000044

00000a38 <i2c_Read>:
     a38:	b5f7      	push	{r0, r1, r2, r4, r5, r6, r7, lr}
     a3a:	001e      	movs	r6, r3
     a3c:	466b      	mov	r3, sp
     a3e:	4c15      	ldr	r4, [pc, #84]	; (a94 <i2c_Read+0x5c>)
     a40:	71d9      	strb	r1, [r3, #7]
     a42:	3307      	adds	r3, #7
     a44:	6063      	str	r3, [r4, #4]
     a46:	2301      	movs	r3, #1
     a48:	8063      	strh	r3, [r4, #2]
     a4a:	2300      	movs	r3, #0
     a4c:	0017      	movs	r7, r2
     a4e:	8020      	strh	r0, [r4, #0]
     a50:	7223      	strb	r3, [r4, #8]
     a52:	7263      	strb	r3, [r4, #9]
     a54:	4d10      	ldr	r5, [pc, #64]	; (a98 <i2c_Read+0x60>)
     a56:	0021      	movs	r1, r4
     a58:	0028      	movs	r0, r5
     a5a:	4b10      	ldr	r3, [pc, #64]	; (a9c <i2c_Read+0x64>)
     a5c:	4798      	blx	r3
     a5e:	2800      	cmp	r0, #0
     a60:	d10e      	bne.n	a80 <i2c_Read+0x48>
     a62:	6067      	str	r7, [r4, #4]
     a64:	8066      	strh	r6, [r4, #2]
     a66:	0021      	movs	r1, r4
     a68:	0028      	movs	r0, r5
     a6a:	4b0d      	ldr	r3, [pc, #52]	; (aa0 <i2c_Read+0x68>)
     a6c:	4798      	blx	r3
     a6e:	2800      	cmp	r0, #0
     a70:	d00e      	beq.n	a90 <i2c_Read+0x58>
     a72:	4a0c      	ldr	r2, [pc, #48]	; (aa4 <i2c_Read+0x6c>)
     a74:	8813      	ldrh	r3, [r2, #0]
     a76:	1c59      	adds	r1, r3, #1
     a78:	8011      	strh	r1, [r2, #0]
     a7a:	2b0a      	cmp	r3, #10
     a7c:	d1f3      	bne.n	a66 <i2c_Read+0x2e>
     a7e:	e005      	b.n	a8c <i2c_Read+0x54>
     a80:	4a08      	ldr	r2, [pc, #32]	; (aa4 <i2c_Read+0x6c>)
     a82:	8813      	ldrh	r3, [r2, #0]
     a84:	1c59      	adds	r1, r3, #1
     a86:	8011      	strh	r1, [r2, #0]
     a88:	2b0a      	cmp	r3, #10
     a8a:	d1e3      	bne.n	a54 <i2c_Read+0x1c>
     a8c:	2001      	movs	r0, #1
     a8e:	4240      	negs	r0, r0
     a90:	bdfe      	pop	{r1, r2, r3, r4, r5, r6, r7, pc}
     a92:	46c0      	nop			; (mov r8, r8)
     a94:	2000008c 	.word	0x2000008c
     a98:	200000a0 	.word	0x200000a0
     a9c:	00000461 	.word	0x00000461
     aa0:	00000441 	.word	0x00000441
     aa4:	20000044 	.word	0x20000044

00000aa8 <delay_init>:
     aa8:	b570      	push	{r4, r5, r6, lr}
     aaa:	4b09      	ldr	r3, [pc, #36]	; (ad0 <delay_init+0x28>)
     aac:	2000      	movs	r0, #0
     aae:	4798      	blx	r3
     ab0:	21fa      	movs	r1, #250	; 0xfa
     ab2:	4c08      	ldr	r4, [pc, #32]	; (ad4 <delay_init+0x2c>)
     ab4:	0089      	lsls	r1, r1, #2
     ab6:	0005      	movs	r5, r0
     ab8:	47a0      	blx	r4
     aba:	4b07      	ldr	r3, [pc, #28]	; (ad8 <delay_init+0x30>)
     abc:	4907      	ldr	r1, [pc, #28]	; (adc <delay_init+0x34>)
     abe:	6018      	str	r0, [r3, #0]
     ac0:	0028      	movs	r0, r5
     ac2:	47a0      	blx	r4
     ac4:	2205      	movs	r2, #5
     ac6:	4b06      	ldr	r3, [pc, #24]	; (ae0 <delay_init+0x38>)
     ac8:	6018      	str	r0, [r3, #0]
     aca:	4b06      	ldr	r3, [pc, #24]	; (ae4 <delay_init+0x3c>)
     acc:	601a      	str	r2, [r3, #0]
     ace:	bd70      	pop	{r4, r5, r6, pc}
     ad0:	000010a9 	.word	0x000010a9
     ad4:	00001475 	.word	0x00001475
     ad8:	20000000 	.word	0x20000000
     adc:	000f4240 	.word	0x000f4240
     ae0:	20000004 	.word	0x20000004
     ae4:	e000e010 	.word	0xe000e010

00000ae8 <delay_cycles_ms>:
     ae8:	b530      	push	{r4, r5, lr}
     aea:	2480      	movs	r4, #128	; 0x80
     aec:	2100      	movs	r1, #0
     aee:	4b07      	ldr	r3, [pc, #28]	; (b0c <delay_cycles_ms+0x24>)
     af0:	0264      	lsls	r4, r4, #9
     af2:	681a      	ldr	r2, [r3, #0]
     af4:	4b06      	ldr	r3, [pc, #24]	; (b10 <delay_cycles_ms+0x28>)
     af6:	3801      	subs	r0, #1
     af8:	d200      	bcs.n	afc <delay_cycles_ms+0x14>
     afa:	bd30      	pop	{r4, r5, pc}
     afc:	2a00      	cmp	r2, #0
     afe:	d0fa      	beq.n	af6 <delay_cycles_ms+0xe>
     b00:	605a      	str	r2, [r3, #4]
     b02:	6099      	str	r1, [r3, #8]
     b04:	681d      	ldr	r5, [r3, #0]
     b06:	4225      	tst	r5, r4
     b08:	d0fc      	beq.n	b04 <delay_cycles_ms+0x1c>
     b0a:	e7f4      	b.n	af6 <delay_cycles_ms+0xe>
     b0c:	20000000 	.word	0x20000000
     b10:	e000e010 	.word	0xe000e010

00000b14 <extint_is_syncing>:
     b14:	4b01      	ldr	r3, [pc, #4]	; (b1c <extint_is_syncing+0x8>)
     b16:	7858      	ldrb	r0, [r3, #1]
     b18:	09c0      	lsrs	r0, r0, #7
     b1a:	4770      	bx	lr
     b1c:	40001800 	.word	0x40001800

00000b20 <_extint_enable>:
     b20:	2302      	movs	r3, #2
     b22:	b510      	push	{r4, lr}
     b24:	4a04      	ldr	r2, [pc, #16]	; (b38 <_extint_enable+0x18>)
     b26:	7811      	ldrb	r1, [r2, #0]
     b28:	430b      	orrs	r3, r1
     b2a:	7013      	strb	r3, [r2, #0]
     b2c:	4b03      	ldr	r3, [pc, #12]	; (b3c <_extint_enable+0x1c>)
     b2e:	4798      	blx	r3
     b30:	2800      	cmp	r0, #0
     b32:	d1fb      	bne.n	b2c <_extint_enable+0xc>
     b34:	bd10      	pop	{r4, pc}
     b36:	46c0      	nop			; (mov r8, r8)
     b38:	40001800 	.word	0x40001800
     b3c:	00000b15 	.word	0x00000b15

00000b40 <_system_extint_init>:
     b40:	2340      	movs	r3, #64	; 0x40
     b42:	b507      	push	{r0, r1, r2, lr}
     b44:	4a10      	ldr	r2, [pc, #64]	; (b88 <_system_extint_init+0x48>)
     b46:	2003      	movs	r0, #3
     b48:	6991      	ldr	r1, [r2, #24]
     b4a:	430b      	orrs	r3, r1
     b4c:	6193      	str	r3, [r2, #24]
     b4e:	2300      	movs	r3, #0
     b50:	a901      	add	r1, sp, #4
     b52:	700b      	strb	r3, [r1, #0]
     b54:	4b0d      	ldr	r3, [pc, #52]	; (b8c <_system_extint_init+0x4c>)
     b56:	4798      	blx	r3
     b58:	4b0d      	ldr	r3, [pc, #52]	; (b90 <_system_extint_init+0x50>)
     b5a:	2003      	movs	r0, #3
     b5c:	4798      	blx	r3
     b5e:	2301      	movs	r3, #1
     b60:	4a0c      	ldr	r2, [pc, #48]	; (b94 <_system_extint_init+0x54>)
     b62:	7811      	ldrb	r1, [r2, #0]
     b64:	430b      	orrs	r3, r1
     b66:	7013      	strb	r3, [r2, #0]
     b68:	4b0b      	ldr	r3, [pc, #44]	; (b98 <_system_extint_init+0x58>)
     b6a:	4798      	blx	r3
     b6c:	2800      	cmp	r0, #0
     b6e:	d1fb      	bne.n	b68 <_system_extint_init+0x28>
     b70:	0002      	movs	r2, r0
     b72:	4b0a      	ldr	r3, [pc, #40]	; (b9c <_system_extint_init+0x5c>)
     b74:	501a      	str	r2, [r3, r0]
     b76:	3004      	adds	r0, #4
     b78:	2840      	cmp	r0, #64	; 0x40
     b7a:	d1fb      	bne.n	b74 <_system_extint_init+0x34>
     b7c:	2210      	movs	r2, #16
     b7e:	4b08      	ldr	r3, [pc, #32]	; (ba0 <_system_extint_init+0x60>)
     b80:	601a      	str	r2, [r3, #0]
     b82:	4b08      	ldr	r3, [pc, #32]	; (ba4 <_system_extint_init+0x64>)
     b84:	4798      	blx	r3
     b86:	bd07      	pop	{r0, r1, r2, pc}
     b88:	40000400 	.word	0x40000400
     b8c:	000011b9 	.word	0x000011b9
     b90:	00001131 	.word	0x00001131
     b94:	40001800 	.word	0x40001800
     b98:	00000b15 	.word	0x00000b15
     b9c:	200000f0 	.word	0x200000f0
     ba0:	e000e100 	.word	0xe000e100
     ba4:	00000b21 	.word	0x00000b21

00000ba8 <extint_chan_get_config_defaults>:
     ba8:	2300      	movs	r3, #0
     baa:	2201      	movs	r2, #1
     bac:	6003      	str	r3, [r0, #0]
     bae:	6043      	str	r3, [r0, #4]
     bb0:	7283      	strb	r3, [r0, #10]
     bb2:	3302      	adds	r3, #2
     bb4:	7202      	strb	r2, [r0, #8]
     bb6:	7242      	strb	r2, [r0, #9]
     bb8:	72c3      	strb	r3, [r0, #11]
     bba:	4770      	bx	lr

00000bbc <extint_chan_set_config>:
     bbc:	b5f7      	push	{r0, r1, r2, r4, r5, r6, r7, lr}
     bbe:	000c      	movs	r4, r1
     bc0:	2600      	movs	r6, #0
     bc2:	7923      	ldrb	r3, [r4, #4]
     bc4:	a901      	add	r1, sp, #4
     bc6:	704e      	strb	r6, [r1, #1]
     bc8:	70ce      	strb	r6, [r1, #3]
     bca:	700b      	strb	r3, [r1, #0]
     bcc:	7a23      	ldrb	r3, [r4, #8]
     bce:	0005      	movs	r5, r0
     bd0:	708b      	strb	r3, [r1, #2]
     bd2:	7820      	ldrb	r0, [r4, #0]
     bd4:	4b13      	ldr	r3, [pc, #76]	; (c24 <extint_chan_set_config+0x68>)
     bd6:	4798      	blx	r3
     bd8:	0033      	movs	r3, r6
     bda:	2d1f      	cmp	r5, #31
     bdc:	d800      	bhi.n	be0 <extint_chan_set_config+0x24>
     bde:	4b12      	ldr	r3, [pc, #72]	; (c28 <extint_chan_set_config+0x6c>)
     be0:	2107      	movs	r1, #7
     be2:	7aa2      	ldrb	r2, [r4, #10]
     be4:	4029      	ands	r1, r5
     be6:	0089      	lsls	r1, r1, #2
     be8:	7ae6      	ldrb	r6, [r4, #11]
     bea:	2a00      	cmp	r2, #0
     bec:	d001      	beq.n	bf2 <extint_chan_set_config+0x36>
     bee:	2208      	movs	r2, #8
     bf0:	4316      	orrs	r6, r2
     bf2:	270f      	movs	r7, #15
     bf4:	408e      	lsls	r6, r1
     bf6:	408f      	lsls	r7, r1
     bf8:	0031      	movs	r1, r6
     bfa:	08ea      	lsrs	r2, r5, #3
     bfc:	0092      	lsls	r2, r2, #2
     bfe:	189a      	adds	r2, r3, r2
     c00:	6990      	ldr	r0, [r2, #24]
     c02:	43b8      	bics	r0, r7
     c04:	4301      	orrs	r1, r0
     c06:	6191      	str	r1, [r2, #24]
     c08:	7a61      	ldrb	r1, [r4, #9]
     c0a:	2201      	movs	r2, #1
     c0c:	2900      	cmp	r1, #0
     c0e:	d004      	beq.n	c1a <extint_chan_set_config+0x5e>
     c10:	40aa      	lsls	r2, r5
     c12:	6959      	ldr	r1, [r3, #20]
     c14:	430a      	orrs	r2, r1
     c16:	615a      	str	r2, [r3, #20]
     c18:	bdf7      	pop	{r0, r1, r2, r4, r5, r6, r7, pc}
     c1a:	40aa      	lsls	r2, r5
     c1c:	6959      	ldr	r1, [r3, #20]
     c1e:	4391      	bics	r1, r2
     c20:	6159      	str	r1, [r3, #20]
     c22:	e7f9      	b.n	c18 <extint_chan_set_config+0x5c>
     c24:	0000128d 	.word	0x0000128d
     c28:	40001800 	.word	0x40001800

00000c2c <port_pin_set_config>:
     c2c:	b507      	push	{r0, r1, r2, lr}
     c2e:	2280      	movs	r2, #128	; 0x80
     c30:	ab01      	add	r3, sp, #4
     c32:	701a      	strb	r2, [r3, #0]
     c34:	780a      	ldrb	r2, [r1, #0]
     c36:	705a      	strb	r2, [r3, #1]
     c38:	784a      	ldrb	r2, [r1, #1]
     c3a:	709a      	strb	r2, [r3, #2]
     c3c:	788a      	ldrb	r2, [r1, #2]
     c3e:	0019      	movs	r1, r3
     c40:	70da      	strb	r2, [r3, #3]
     c42:	4b01      	ldr	r3, [pc, #4]	; (c48 <port_pin_set_config+0x1c>)
     c44:	4798      	blx	r3
     c46:	bd07      	pop	{r0, r1, r2, pc}
     c48:	0000128d 	.word	0x0000128d

00000c4c <extint_register_callback>:
     c4c:	b510      	push	{r4, lr}
     c4e:	2317      	movs	r3, #23
     c50:	2a00      	cmp	r2, #0
     c52:	d106      	bne.n	c62 <extint_register_callback+0x16>
     c54:	4b06      	ldr	r3, [pc, #24]	; (c70 <extint_register_callback+0x24>)
     c56:	0089      	lsls	r1, r1, #2
     c58:	58cc      	ldr	r4, [r1, r3]
     c5a:	2c00      	cmp	r4, #0
     c5c:	d103      	bne.n	c66 <extint_register_callback+0x1a>
     c5e:	50c8      	str	r0, [r1, r3]
     c60:	0023      	movs	r3, r4
     c62:	0018      	movs	r0, r3
     c64:	bd10      	pop	{r4, pc}
     c66:	0013      	movs	r3, r2
     c68:	4284      	cmp	r4, r0
     c6a:	d0fa      	beq.n	c62 <extint_register_callback+0x16>
     c6c:	231d      	movs	r3, #29
     c6e:	e7f8      	b.n	c62 <extint_register_callback+0x16>
     c70:	200000f0 	.word	0x200000f0

00000c74 <extint_chan_enable_callback>:
     c74:	2317      	movs	r3, #23
     c76:	2900      	cmp	r1, #0
     c78:	d106      	bne.n	c88 <extint_chan_enable_callback+0x14>
     c7a:	281f      	cmp	r0, #31
     c7c:	d806      	bhi.n	c8c <extint_chan_enable_callback+0x18>
     c7e:	3b16      	subs	r3, #22
     c80:	4083      	lsls	r3, r0
     c82:	4a03      	ldr	r2, [pc, #12]	; (c90 <extint_chan_enable_callback+0x1c>)
     c84:	60d3      	str	r3, [r2, #12]
     c86:	000b      	movs	r3, r1
     c88:	0018      	movs	r0, r3
     c8a:	4770      	bx	lr
     c8c:	60c9      	str	r1, [r1, #12]
     c8e:	deff      	udf	#255	; 0xff
     c90:	40001800 	.word	0x40001800

00000c94 <EIC_Handler>:
     c94:	2300      	movs	r3, #0
     c96:	b570      	push	{r4, r5, r6, lr}
     c98:	2501      	movs	r5, #1
     c9a:	4c0b      	ldr	r4, [pc, #44]	; (cc8 <EIC_Handler+0x34>)
     c9c:	7023      	strb	r3, [r4, #0]
     c9e:	7823      	ldrb	r3, [r4, #0]
     ca0:	2b0f      	cmp	r3, #15
     ca2:	d900      	bls.n	ca6 <EIC_Handler+0x12>
     ca4:	bd70      	pop	{r4, r5, r6, pc}
     ca6:	0029      	movs	r1, r5
     ca8:	4099      	lsls	r1, r3
     caa:	4a08      	ldr	r2, [pc, #32]	; (ccc <EIC_Handler+0x38>)
     cac:	6910      	ldr	r0, [r2, #16]
     cae:	4208      	tst	r0, r1
     cb0:	d006      	beq.n	cc0 <EIC_Handler+0x2c>
     cb2:	6111      	str	r1, [r2, #16]
     cb4:	4a06      	ldr	r2, [pc, #24]	; (cd0 <EIC_Handler+0x3c>)
     cb6:	009b      	lsls	r3, r3, #2
     cb8:	589b      	ldr	r3, [r3, r2]
     cba:	2b00      	cmp	r3, #0
     cbc:	d000      	beq.n	cc0 <EIC_Handler+0x2c>
     cbe:	4798      	blx	r3
     cc0:	7823      	ldrb	r3, [r4, #0]
     cc2:	3301      	adds	r3, #1
     cc4:	7023      	strb	r3, [r4, #0]
     cc6:	e7ea      	b.n	c9e <EIC_Handler+0xa>
     cc8:	20000130 	.word	0x20000130
     ccc:	40001800 	.word	0x40001800
     cd0:	200000f0 	.word	0x200000f0

00000cd4 <config_led>:
     cd4:	2301      	movs	r3, #1
     cd6:	b507      	push	{r0, r1, r2, lr}
     cd8:	2200      	movs	r2, #0
     cda:	a901      	add	r1, sp, #4
     cdc:	704b      	strb	r3, [r1, #1]
     cde:	700b      	strb	r3, [r1, #0]
     ce0:	200e      	movs	r0, #14
     ce2:	4b04      	ldr	r3, [pc, #16]	; (cf4 <config_led+0x20>)
     ce4:	708a      	strb	r2, [r1, #2]
     ce6:	4798      	blx	r3
     ce8:	2280      	movs	r2, #128	; 0x80
     cea:	4b03      	ldr	r3, [pc, #12]	; (cf8 <config_led+0x24>)
     cec:	01d2      	lsls	r2, r2, #7
     cee:	619a      	str	r2, [r3, #24]
     cf0:	bd07      	pop	{r0, r1, r2, pc}
     cf2:	46c0      	nop			; (mov r8, r8)
     cf4:	00000c2d 	.word	0x00000c2d
     cf8:	41004400 	.word	0x41004400

00000cfc <config_btn>:
     cfc:	2300      	movs	r3, #0
     cfe:	b507      	push	{r0, r1, r2, lr}
     d00:	2201      	movs	r2, #1
     d02:	a901      	add	r1, sp, #4
     d04:	700b      	strb	r3, [r1, #0]
     d06:	708b      	strb	r3, [r1, #2]
     d08:	200f      	movs	r0, #15
     d0a:	4b02      	ldr	r3, [pc, #8]	; (d14 <config_btn+0x18>)
     d0c:	704a      	strb	r2, [r1, #1]
     d0e:	4798      	blx	r3
     d10:	bd07      	pop	{r0, r1, r2, pc}
     d12:	46c0      	nop			; (mov r8, r8)
     d14:	00000c2d 	.word	0x00000c2d

00000d18 <system_board_init>:
     d18:	4b0e      	ldr	r3, [pc, #56]	; (d54 <system_board_init+0x3c>)
     d1a:	b510      	push	{r4, lr}
     d1c:	2000      	movs	r0, #0
     d1e:	4798      	blx	r3
     d20:	4b0d      	ldr	r3, [pc, #52]	; (d58 <system_board_init+0x40>)
     d22:	3801      	subs	r0, #1
     d24:	4298      	cmp	r0, r3
     d26:	d80d      	bhi.n	d44 <system_board_init+0x2c>
     d28:	21c0      	movs	r1, #192	; 0xc0
     d2a:	4a0c      	ldr	r2, [pc, #48]	; (d5c <system_board_init+0x44>)
     d2c:	0609      	lsls	r1, r1, #24
     d2e:	6050      	str	r0, [r2, #4]
     d30:	480b      	ldr	r0, [pc, #44]	; (d60 <system_board_init+0x48>)
     d32:	6a03      	ldr	r3, [r0, #32]
     d34:	021b      	lsls	r3, r3, #8
     d36:	0a1b      	lsrs	r3, r3, #8
     d38:	430b      	orrs	r3, r1
     d3a:	6203      	str	r3, [r0, #32]
     d3c:	2300      	movs	r3, #0
     d3e:	6093      	str	r3, [r2, #8]
     d40:	3307      	adds	r3, #7
     d42:	6013      	str	r3, [r2, #0]
     d44:	4b07      	ldr	r3, [pc, #28]	; (d64 <system_board_init+0x4c>)
     d46:	4798      	blx	r3
     d48:	4b07      	ldr	r3, [pc, #28]	; (d68 <system_board_init+0x50>)
     d4a:	4798      	blx	r3
     d4c:	4b07      	ldr	r3, [pc, #28]	; (d6c <system_board_init+0x54>)
     d4e:	4798      	blx	r3
     d50:	bd10      	pop	{r4, pc}
     d52:	46c0      	nop			; (mov r8, r8)
     d54:	000010a9 	.word	0x000010a9
     d58:	00ffffff 	.word	0x00ffffff
     d5c:	e000e010 	.word	0xe000e010
     d60:	e000ed00 	.word	0xe000ed00
     d64:	00000aa9 	.word	0x00000aa9
     d68:	00000cd5 	.word	0x00000cd5
     d6c:	00000cfd 	.word	0x00000cfd

00000d70 <cpu_irq_enter_critical>:
     d70:	4b09      	ldr	r3, [pc, #36]	; (d98 <cpu_irq_enter_critical+0x28>)
     d72:	6819      	ldr	r1, [r3, #0]
     d74:	2900      	cmp	r1, #0
     d76:	d10b      	bne.n	d90 <cpu_irq_enter_critical+0x20>
     d78:	f3ef 8010 	mrs	r0, PRIMASK
     d7c:	4a07      	ldr	r2, [pc, #28]	; (d9c <cpu_irq_enter_critical+0x2c>)
     d7e:	2800      	cmp	r0, #0
     d80:	d105      	bne.n	d8e <cpu_irq_enter_critical+0x1e>
     d82:	b672      	cpsid	i
     d84:	f3bf 8f5f 	dmb	sy
     d88:	4905      	ldr	r1, [pc, #20]	; (da0 <cpu_irq_enter_critical+0x30>)
     d8a:	7008      	strb	r0, [r1, #0]
     d8c:	2101      	movs	r1, #1
     d8e:	7011      	strb	r1, [r2, #0]
     d90:	681a      	ldr	r2, [r3, #0]
     d92:	3201      	adds	r2, #1
     d94:	601a      	str	r2, [r3, #0]
     d96:	4770      	bx	lr
     d98:	20000048 	.word	0x20000048
     d9c:	2000004c 	.word	0x2000004c
     da0:	20000008 	.word	0x20000008

00000da4 <cpu_irq_leave_critical>:
     da4:	4b08      	ldr	r3, [pc, #32]	; (dc8 <cpu_irq_leave_critical+0x24>)
     da6:	681a      	ldr	r2, [r3, #0]
     da8:	3a01      	subs	r2, #1
     daa:	601a      	str	r2, [r3, #0]
     dac:	681b      	ldr	r3, [r3, #0]
     dae:	2b00      	cmp	r3, #0
     db0:	d109      	bne.n	dc6 <cpu_irq_leave_critical+0x22>
     db2:	4b06      	ldr	r3, [pc, #24]	; (dcc <cpu_irq_leave_critical+0x28>)
     db4:	781b      	ldrb	r3, [r3, #0]
     db6:	2b00      	cmp	r3, #0
     db8:	d005      	beq.n	dc6 <cpu_irq_leave_critical+0x22>
     dba:	2201      	movs	r2, #1
     dbc:	4b04      	ldr	r3, [pc, #16]	; (dd0 <cpu_irq_leave_critical+0x2c>)
     dbe:	701a      	strb	r2, [r3, #0]
     dc0:	f3bf 8f5f 	dmb	sy
     dc4:	b662      	cpsie	i
     dc6:	4770      	bx	lr
     dc8:	20000048 	.word	0x20000048
     dcc:	2000004c 	.word	0x2000004c
     dd0:	20000008 	.word	0x20000008

00000dd4 <system_clock_source_get_hz>:
     dd4:	b510      	push	{r4, lr}
     dd6:	2807      	cmp	r0, #7
     dd8:	d805      	bhi.n	de6 <system_clock_source_get_hz+0x12>
     dda:	f000 fb41 	bl	1460 <__gnu_thumb1_case_uqi>
     dde:	0406      	.short	0x0406
     de0:	10272704 	.word	0x10272704
     de4:	1309      	.short	0x1309
     de6:	2000      	movs	r0, #0
     de8:	bd10      	pop	{r4, pc}
     dea:	4b13      	ldr	r3, [pc, #76]	; (e38 <system_clock_source_get_hz+0x64>)
     dec:	68d8      	ldr	r0, [r3, #12]
     dee:	e7fb      	b.n	de8 <system_clock_source_get_hz+0x14>
     df0:	4b12      	ldr	r3, [pc, #72]	; (e3c <system_clock_source_get_hz+0x68>)
     df2:	4813      	ldr	r0, [pc, #76]	; (e40 <system_clock_source_get_hz+0x6c>)
     df4:	6a1b      	ldr	r3, [r3, #32]
     df6:	059b      	lsls	r3, r3, #22
     df8:	0f9b      	lsrs	r3, r3, #30
     dfa:	40d8      	lsrs	r0, r3
     dfc:	e7f4      	b.n	de8 <system_clock_source_get_hz+0x14>
     dfe:	4b0e      	ldr	r3, [pc, #56]	; (e38 <system_clock_source_get_hz+0x64>)
     e00:	6918      	ldr	r0, [r3, #16]
     e02:	e7f1      	b.n	de8 <system_clock_source_get_hz+0x14>
     e04:	4c0c      	ldr	r4, [pc, #48]	; (e38 <system_clock_source_get_hz+0x64>)
     e06:	2000      	movs	r0, #0
     e08:	6823      	ldr	r3, [r4, #0]
     e0a:	079b      	lsls	r3, r3, #30
     e0c:	d5ec      	bpl.n	de8 <system_clock_source_get_hz+0x14>
     e0e:	2310      	movs	r3, #16
     e10:	490a      	ldr	r1, [pc, #40]	; (e3c <system_clock_source_get_hz+0x68>)
     e12:	68ca      	ldr	r2, [r1, #12]
     e14:	421a      	tst	r2, r3
     e16:	d0fc      	beq.n	e12 <system_clock_source_get_hz+0x3e>
     e18:	6823      	ldr	r3, [r4, #0]
     e1a:	075b      	lsls	r3, r3, #29
     e1c:	d509      	bpl.n	e32 <system_clock_source_get_hz+0x5e>
     e1e:	4b09      	ldr	r3, [pc, #36]	; (e44 <system_clock_source_get_hz+0x70>)
     e20:	2000      	movs	r0, #0
     e22:	4798      	blx	r3
     e24:	68a3      	ldr	r3, [r4, #8]
     e26:	b29b      	uxth	r3, r3
     e28:	4358      	muls	r0, r3
     e2a:	e7dd      	b.n	de8 <system_clock_source_get_hz+0x14>
     e2c:	2080      	movs	r0, #128	; 0x80
     e2e:	0200      	lsls	r0, r0, #8
     e30:	e7da      	b.n	de8 <system_clock_source_get_hz+0x14>
     e32:	4805      	ldr	r0, [pc, #20]	; (e48 <system_clock_source_get_hz+0x74>)
     e34:	e7d8      	b.n	de8 <system_clock_source_get_hz+0x14>
     e36:	46c0      	nop			; (mov r8, r8)
     e38:	20000050 	.word	0x20000050
     e3c:	40000800 	.word	0x40000800
     e40:	007a1200 	.word	0x007a1200
     e44:	000011d5 	.word	0x000011d5
     e48:	02dc6c00 	.word	0x02dc6c00

00000e4c <system_clock_source_osc8m_set_config>:
     e4c:	b570      	push	{r4, r5, r6, lr}
     e4e:	7884      	ldrb	r4, [r0, #2]
     e50:	7802      	ldrb	r2, [r0, #0]
     e52:	7845      	ldrb	r5, [r0, #1]
     e54:	2001      	movs	r0, #1
     e56:	2640      	movs	r6, #64	; 0x40
     e58:	4005      	ands	r5, r0
     e5a:	4020      	ands	r0, r4
     e5c:	2480      	movs	r4, #128	; 0x80
     e5e:	4908      	ldr	r1, [pc, #32]	; (e80 <system_clock_source_osc8m_set_config+0x34>)
     e60:	01ad      	lsls	r5, r5, #6
     e62:	6a0b      	ldr	r3, [r1, #32]
     e64:	01c0      	lsls	r0, r0, #7
     e66:	43b3      	bics	r3, r6
     e68:	432b      	orrs	r3, r5
     e6a:	43a3      	bics	r3, r4
     e6c:	4303      	orrs	r3, r0
     e6e:	2003      	movs	r0, #3
     e70:	4002      	ands	r2, r0
     e72:	4804      	ldr	r0, [pc, #16]	; (e84 <system_clock_source_osc8m_set_config+0x38>)
     e74:	0212      	lsls	r2, r2, #8
     e76:	4003      	ands	r3, r0
     e78:	4313      	orrs	r3, r2
     e7a:	620b      	str	r3, [r1, #32]
     e7c:	bd70      	pop	{r4, r5, r6, pc}
     e7e:	46c0      	nop			; (mov r8, r8)
     e80:	40000800 	.word	0x40000800
     e84:	fffffcff 	.word	0xfffffcff

00000e88 <system_clock_source_enable>:
     e88:	b500      	push	{lr}
     e8a:	2807      	cmp	r0, #7
     e8c:	d805      	bhi.n	e9a <system_clock_source_enable+0x12>
     e8e:	f000 fae7 	bl	1460 <__gnu_thumb1_case_uqi>
     e92:	0413      	.short	0x0413
     e94:	190d0b04 	.word	0x190d0b04
     e98:	1f06      	.short	0x1f06
     e9a:	2017      	movs	r0, #23
     e9c:	bd00      	pop	{pc}
     e9e:	2302      	movs	r3, #2
     ea0:	4a17      	ldr	r2, [pc, #92]	; (f00 <system_clock_source_enable+0x78>)
     ea2:	6a11      	ldr	r1, [r2, #32]
     ea4:	430b      	orrs	r3, r1
     ea6:	6213      	str	r3, [r2, #32]
     ea8:	2000      	movs	r0, #0
     eaa:	e7f7      	b.n	e9c <system_clock_source_enable+0x14>
     eac:	2302      	movs	r3, #2
     eae:	4a14      	ldr	r2, [pc, #80]	; (f00 <system_clock_source_enable+0x78>)
     eb0:	6991      	ldr	r1, [r2, #24]
     eb2:	430b      	orrs	r3, r1
     eb4:	6193      	str	r3, [r2, #24]
     eb6:	e7f7      	b.n	ea8 <system_clock_source_enable+0x20>
     eb8:	2302      	movs	r3, #2
     eba:	4a11      	ldr	r2, [pc, #68]	; (f00 <system_clock_source_enable+0x78>)
     ebc:	8a11      	ldrh	r1, [r2, #16]
     ebe:	430b      	orrs	r3, r1
     ec0:	8213      	strh	r3, [r2, #16]
     ec2:	e7f1      	b.n	ea8 <system_clock_source_enable+0x20>
     ec4:	2302      	movs	r3, #2
     ec6:	4a0e      	ldr	r2, [pc, #56]	; (f00 <system_clock_source_enable+0x78>)
     ec8:	8a91      	ldrh	r1, [r2, #20]
     eca:	430b      	orrs	r3, r1
     ecc:	8293      	strh	r3, [r2, #20]
     ece:	e7eb      	b.n	ea8 <system_clock_source_enable+0x20>
     ed0:	2302      	movs	r3, #2
     ed2:	4a0c      	ldr	r2, [pc, #48]	; (f04 <system_clock_source_enable+0x7c>)
     ed4:	6811      	ldr	r1, [r2, #0]
     ed6:	430b      	orrs	r3, r1
     ed8:	6013      	str	r3, [r2, #0]
     eda:	2380      	movs	r3, #128	; 0x80
     edc:	6811      	ldr	r1, [r2, #0]
     ede:	4399      	bics	r1, r3
     ee0:	4b07      	ldr	r3, [pc, #28]	; (f00 <system_clock_source_enable+0x78>)
     ee2:	b289      	uxth	r1, r1
     ee4:	8499      	strh	r1, [r3, #36]	; 0x24
     ee6:	2110      	movs	r1, #16
     ee8:	68d8      	ldr	r0, [r3, #12]
     eea:	4208      	tst	r0, r1
     eec:	d0fc      	beq.n	ee8 <system_clock_source_enable+0x60>
     eee:	6891      	ldr	r1, [r2, #8]
     ef0:	62d9      	str	r1, [r3, #44]	; 0x2c
     ef2:	6851      	ldr	r1, [r2, #4]
     ef4:	6299      	str	r1, [r3, #40]	; 0x28
     ef6:	6812      	ldr	r2, [r2, #0]
     ef8:	b292      	uxth	r2, r2
     efa:	849a      	strh	r2, [r3, #36]	; 0x24
     efc:	e7d4      	b.n	ea8 <system_clock_source_enable+0x20>
     efe:	46c0      	nop			; (mov r8, r8)
     f00:	40000800 	.word	0x40000800
     f04:	20000050 	.word	0x20000050

00000f08 <system_clock_init>:
     f08:	b57f      	push	{r0, r1, r2, r3, r4, r5, r6, lr}
     f0a:	22c2      	movs	r2, #194	; 0xc2
     f0c:	211e      	movs	r1, #30
     f0e:	4b19      	ldr	r3, [pc, #100]	; (f74 <system_clock_init+0x6c>)
     f10:	00d2      	lsls	r2, r2, #3
     f12:	609a      	str	r2, [r3, #8]
     f14:	4a18      	ldr	r2, [pc, #96]	; (f78 <system_clock_init+0x70>)
     f16:	2400      	movs	r4, #0
     f18:	6853      	ldr	r3, [r2, #4]
     f1a:	ad01      	add	r5, sp, #4
     f1c:	438b      	bics	r3, r1
     f1e:	6053      	str	r3, [r2, #4]
     f20:	2301      	movs	r3, #1
     f22:	702b      	strb	r3, [r5, #0]
     f24:	b2e0      	uxtb	r0, r4
     f26:	0029      	movs	r1, r5
     f28:	4b14      	ldr	r3, [pc, #80]	; (f7c <system_clock_init+0x74>)
     f2a:	3401      	adds	r4, #1
     f2c:	4798      	blx	r3
     f2e:	2c1c      	cmp	r4, #28
     f30:	d1f8      	bne.n	f24 <system_clock_init+0x1c>
     f32:	2400      	movs	r4, #0
     f34:	466b      	mov	r3, sp
     f36:	2601      	movs	r6, #1
     f38:	705c      	strb	r4, [r3, #1]
     f3a:	709e      	strb	r6, [r3, #2]
     f3c:	701c      	strb	r4, [r3, #0]
     f3e:	4668      	mov	r0, sp
     f40:	4b0f      	ldr	r3, [pc, #60]	; (f80 <system_clock_init+0x78>)
     f42:	4798      	blx	r3
     f44:	4b0f      	ldr	r3, [pc, #60]	; (f84 <system_clock_init+0x7c>)
     f46:	2006      	movs	r0, #6
     f48:	4798      	blx	r3
     f4a:	4b0f      	ldr	r3, [pc, #60]	; (f88 <system_clock_init+0x80>)
     f4c:	4798      	blx	r3
     f4e:	4b0f      	ldr	r3, [pc, #60]	; (f8c <system_clock_init+0x84>)
     f50:	0029      	movs	r1, r5
     f52:	721c      	strb	r4, [r3, #8]
     f54:	725c      	strb	r4, [r3, #9]
     f56:	729c      	strb	r4, [r3, #10]
     f58:	72dc      	strb	r4, [r3, #11]
     f5a:	2306      	movs	r3, #6
     f5c:	0020      	movs	r0, r4
     f5e:	702b      	strb	r3, [r5, #0]
     f60:	4b0b      	ldr	r3, [pc, #44]	; (f90 <system_clock_init+0x88>)
     f62:	606e      	str	r6, [r5, #4]
     f64:	706c      	strb	r4, [r5, #1]
     f66:	722c      	strb	r4, [r5, #8]
     f68:	726c      	strb	r4, [r5, #9]
     f6a:	4798      	blx	r3
     f6c:	0020      	movs	r0, r4
     f6e:	4b09      	ldr	r3, [pc, #36]	; (f94 <system_clock_init+0x8c>)
     f70:	4798      	blx	r3
     f72:	bd7f      	pop	{r0, r1, r2, r3, r4, r5, r6, pc}
     f74:	40000800 	.word	0x40000800
     f78:	41004000 	.word	0x41004000
     f7c:	000011b9 	.word	0x000011b9
     f80:	00000e4d 	.word	0x00000e4d
     f84:	00000e89 	.word	0x00000e89
     f88:	00000fa5 	.word	0x00000fa5
     f8c:	40000400 	.word	0x40000400
     f90:	00000fc5 	.word	0x00000fc5
     f94:	00001069 	.word	0x00001069

00000f98 <system_gclk_is_syncing>:
     f98:	4b01      	ldr	r3, [pc, #4]	; (fa0 <system_gclk_is_syncing+0x8>)
     f9a:	7858      	ldrb	r0, [r3, #1]
     f9c:	09c0      	lsrs	r0, r0, #7
     f9e:	4770      	bx	lr
     fa0:	40000c00 	.word	0x40000c00

00000fa4 <system_gclk_init>:
     fa4:	2308      	movs	r3, #8
     fa6:	4a05      	ldr	r2, [pc, #20]	; (fbc <system_gclk_init+0x18>)
     fa8:	6991      	ldr	r1, [r2, #24]
     faa:	430b      	orrs	r3, r1
     fac:	6193      	str	r3, [r2, #24]
     fae:	2301      	movs	r3, #1
     fb0:	4a03      	ldr	r2, [pc, #12]	; (fc0 <system_gclk_init+0x1c>)
     fb2:	7013      	strb	r3, [r2, #0]
     fb4:	7811      	ldrb	r1, [r2, #0]
     fb6:	4219      	tst	r1, r3
     fb8:	d1fc      	bne.n	fb4 <system_gclk_init+0x10>
     fba:	4770      	bx	lr
     fbc:	40000400 	.word	0x40000400
     fc0:	40000c00 	.word	0x40000c00

00000fc4 <system_gclk_gen_set_config>:
     fc4:	b5f8      	push	{r3, r4, r5, r6, r7, lr}
     fc6:	780c      	ldrb	r4, [r1, #0]
     fc8:	784b      	ldrb	r3, [r1, #1]
     fca:	0224      	lsls	r4, r4, #8
     fcc:	0006      	movs	r6, r0
     fce:	0005      	movs	r5, r0
     fd0:	4304      	orrs	r4, r0
     fd2:	2b00      	cmp	r3, #0
     fd4:	d002      	beq.n	fdc <system_gclk_gen_set_config+0x18>
     fd6:	2380      	movs	r3, #128	; 0x80
     fd8:	02db      	lsls	r3, r3, #11
     fda:	431c      	orrs	r4, r3
     fdc:	7a4b      	ldrb	r3, [r1, #9]
     fde:	2b00      	cmp	r3, #0
     fe0:	d002      	beq.n	fe8 <system_gclk_gen_set_config+0x24>
     fe2:	2380      	movs	r3, #128	; 0x80
     fe4:	031b      	lsls	r3, r3, #12
     fe6:	431c      	orrs	r4, r3
     fe8:	684b      	ldr	r3, [r1, #4]
     fea:	2b01      	cmp	r3, #1
     fec:	d912      	bls.n	1014 <system_gclk_gen_set_config+0x50>
     fee:	1e5d      	subs	r5, r3, #1
     ff0:	401d      	ands	r5, r3
     ff2:	2202      	movs	r2, #2
     ff4:	2d00      	cmp	r5, #0
     ff6:	d006      	beq.n	1006 <system_gclk_gen_set_config+0x42>
     ff8:	021d      	lsls	r5, r3, #8
     ffa:	2380      	movs	r3, #128	; 0x80
     ffc:	4335      	orrs	r5, r6
     ffe:	029b      	lsls	r3, r3, #10
    1000:	e007      	b.n	1012 <system_gclk_gen_set_config+0x4e>
    1002:	3501      	adds	r5, #1
    1004:	0052      	lsls	r2, r2, #1
    1006:	429a      	cmp	r2, r3
    1008:	d3fb      	bcc.n	1002 <system_gclk_gen_set_config+0x3e>
    100a:	2380      	movs	r3, #128	; 0x80
    100c:	022d      	lsls	r5, r5, #8
    100e:	4335      	orrs	r5, r6
    1010:	035b      	lsls	r3, r3, #13
    1012:	431c      	orrs	r4, r3
    1014:	7a0b      	ldrb	r3, [r1, #8]
    1016:	2b00      	cmp	r3, #0
    1018:	d002      	beq.n	1020 <system_gclk_gen_set_config+0x5c>
    101a:	2380      	movs	r3, #128	; 0x80
    101c:	039b      	lsls	r3, r3, #14
    101e:	431c      	orrs	r4, r3
    1020:	4f0c      	ldr	r7, [pc, #48]	; (1054 <system_gclk_gen_set_config+0x90>)
    1022:	47b8      	blx	r7
    1024:	2800      	cmp	r0, #0
    1026:	d1fb      	bne.n	1020 <system_gclk_gen_set_config+0x5c>
    1028:	4b0b      	ldr	r3, [pc, #44]	; (1058 <system_gclk_gen_set_config+0x94>)
    102a:	4798      	blx	r3
    102c:	4b0b      	ldr	r3, [pc, #44]	; (105c <system_gclk_gen_set_config+0x98>)
    102e:	701e      	strb	r6, [r3, #0]
    1030:	47b8      	blx	r7
    1032:	2800      	cmp	r0, #0
    1034:	d1fc      	bne.n	1030 <system_gclk_gen_set_config+0x6c>
    1036:	4b0a      	ldr	r3, [pc, #40]	; (1060 <system_gclk_gen_set_config+0x9c>)
    1038:	609d      	str	r5, [r3, #8]
    103a:	001d      	movs	r5, r3
    103c:	47b8      	blx	r7
    103e:	2800      	cmp	r0, #0
    1040:	d1fc      	bne.n	103c <system_gclk_gen_set_config+0x78>
    1042:	2280      	movs	r2, #128	; 0x80
    1044:	686b      	ldr	r3, [r5, #4]
    1046:	0252      	lsls	r2, r2, #9
    1048:	4013      	ands	r3, r2
    104a:	431c      	orrs	r4, r3
    104c:	606c      	str	r4, [r5, #4]
    104e:	4b05      	ldr	r3, [pc, #20]	; (1064 <system_gclk_gen_set_config+0xa0>)
    1050:	4798      	blx	r3
    1052:	bdf8      	pop	{r3, r4, r5, r6, r7, pc}
    1054:	00000f99 	.word	0x00000f99
    1058:	00000d71 	.word	0x00000d71
    105c:	40000c08 	.word	0x40000c08
    1060:	40000c00 	.word	0x40000c00
    1064:	00000da5 	.word	0x00000da5

00001068 <system_gclk_gen_enable>:
    1068:	b570      	push	{r4, r5, r6, lr}
    106a:	0005      	movs	r5, r0
    106c:	4c09      	ldr	r4, [pc, #36]	; (1094 <system_gclk_gen_enable+0x2c>)
    106e:	47a0      	blx	r4
    1070:	2800      	cmp	r0, #0
    1072:	d1fb      	bne.n	106c <system_gclk_gen_enable+0x4>
    1074:	4b08      	ldr	r3, [pc, #32]	; (1098 <system_gclk_gen_enable+0x30>)
    1076:	4798      	blx	r3
    1078:	4b08      	ldr	r3, [pc, #32]	; (109c <system_gclk_gen_enable+0x34>)
    107a:	701d      	strb	r5, [r3, #0]
    107c:	47a0      	blx	r4
    107e:	2800      	cmp	r0, #0
    1080:	d1fc      	bne.n	107c <system_gclk_gen_enable+0x14>
    1082:	2380      	movs	r3, #128	; 0x80
    1084:	4a06      	ldr	r2, [pc, #24]	; (10a0 <system_gclk_gen_enable+0x38>)
    1086:	025b      	lsls	r3, r3, #9
    1088:	6851      	ldr	r1, [r2, #4]
    108a:	430b      	orrs	r3, r1
    108c:	6053      	str	r3, [r2, #4]
    108e:	4b05      	ldr	r3, [pc, #20]	; (10a4 <system_gclk_gen_enable+0x3c>)
    1090:	4798      	blx	r3
    1092:	bd70      	pop	{r4, r5, r6, pc}
    1094:	00000f99 	.word	0x00000f99
    1098:	00000d71 	.word	0x00000d71
    109c:	40000c04 	.word	0x40000c04
    10a0:	40000c00 	.word	0x40000c00
    10a4:	00000da5 	.word	0x00000da5

000010a8 <system_gclk_gen_get_hz>:
    10a8:	b5f7      	push	{r0, r1, r2, r4, r5, r6, r7, lr}
    10aa:	0007      	movs	r7, r0
    10ac:	4e18      	ldr	r6, [pc, #96]	; (1110 <system_gclk_gen_get_hz+0x68>)
    10ae:	47b0      	blx	r6
    10b0:	2800      	cmp	r0, #0
    10b2:	d1fb      	bne.n	10ac <system_gclk_gen_get_hz+0x4>
    10b4:	4b17      	ldr	r3, [pc, #92]	; (1114 <system_gclk_gen_get_hz+0x6c>)
    10b6:	4798      	blx	r3
    10b8:	4b17      	ldr	r3, [pc, #92]	; (1118 <system_gclk_gen_get_hz+0x70>)
    10ba:	701f      	strb	r7, [r3, #0]
    10bc:	9301      	str	r3, [sp, #4]
    10be:	47b0      	blx	r6
    10c0:	2800      	cmp	r0, #0
    10c2:	d1fc      	bne.n	10be <system_gclk_gen_get_hz+0x16>
    10c4:	4d15      	ldr	r5, [pc, #84]	; (111c <system_gclk_gen_get_hz+0x74>)
    10c6:	4b16      	ldr	r3, [pc, #88]	; (1120 <system_gclk_gen_get_hz+0x78>)
    10c8:	6868      	ldr	r0, [r5, #4]
    10ca:	04c0      	lsls	r0, r0, #19
    10cc:	0ec0      	lsrs	r0, r0, #27
    10ce:	4798      	blx	r3
    10d0:	0004      	movs	r4, r0
    10d2:	9b01      	ldr	r3, [sp, #4]
    10d4:	701f      	strb	r7, [r3, #0]
    10d6:	686b      	ldr	r3, [r5, #4]
    10d8:	02db      	lsls	r3, r3, #11
    10da:	0fdb      	lsrs	r3, r3, #31
    10dc:	9301      	str	r3, [sp, #4]
    10de:	4b11      	ldr	r3, [pc, #68]	; (1124 <system_gclk_gen_get_hz+0x7c>)
    10e0:	701f      	strb	r7, [r3, #0]
    10e2:	47b0      	blx	r6
    10e4:	2800      	cmp	r0, #0
    10e6:	d1fc      	bne.n	10e2 <system_gclk_gen_get_hz+0x3a>
    10e8:	68ad      	ldr	r5, [r5, #8]
    10ea:	4b0f      	ldr	r3, [pc, #60]	; (1128 <system_gclk_gen_get_hz+0x80>)
    10ec:	4798      	blx	r3
    10ee:	9b01      	ldr	r3, [sp, #4]
    10f0:	022d      	lsls	r5, r5, #8
    10f2:	0c2d      	lsrs	r5, r5, #16
    10f4:	2b00      	cmp	r3, #0
    10f6:	d108      	bne.n	110a <system_gclk_gen_get_hz+0x62>
    10f8:	2d01      	cmp	r5, #1
    10fa:	d904      	bls.n	1106 <system_gclk_gen_get_hz+0x5e>
    10fc:	0020      	movs	r0, r4
    10fe:	0029      	movs	r1, r5
    1100:	4b0a      	ldr	r3, [pc, #40]	; (112c <system_gclk_gen_get_hz+0x84>)
    1102:	4798      	blx	r3
    1104:	0004      	movs	r4, r0
    1106:	0020      	movs	r0, r4
    1108:	bdfe      	pop	{r1, r2, r3, r4, r5, r6, r7, pc}
    110a:	3501      	adds	r5, #1
    110c:	40ec      	lsrs	r4, r5
    110e:	e7fa      	b.n	1106 <system_gclk_gen_get_hz+0x5e>
    1110:	00000f99 	.word	0x00000f99
    1114:	00000d71 	.word	0x00000d71
    1118:	40000c04 	.word	0x40000c04
    111c:	40000c00 	.word	0x40000c00
    1120:	00000dd5 	.word	0x00000dd5
    1124:	40000c08 	.word	0x40000c08
    1128:	00000da5 	.word	0x00000da5
    112c:	00001475 	.word	0x00001475

00001130 <system_gclk_chan_enable>:
    1130:	b510      	push	{r4, lr}
    1132:	0004      	movs	r4, r0
    1134:	4b06      	ldr	r3, [pc, #24]	; (1150 <system_gclk_chan_enable+0x20>)
    1136:	4798      	blx	r3
    1138:	4b06      	ldr	r3, [pc, #24]	; (1154 <system_gclk_chan_enable+0x24>)
    113a:	4a07      	ldr	r2, [pc, #28]	; (1158 <system_gclk_chan_enable+0x28>)
    113c:	701c      	strb	r4, [r3, #0]
    113e:	2380      	movs	r3, #128	; 0x80
    1140:	8851      	ldrh	r1, [r2, #2]
    1142:	01db      	lsls	r3, r3, #7
    1144:	430b      	orrs	r3, r1
    1146:	8053      	strh	r3, [r2, #2]
    1148:	4b04      	ldr	r3, [pc, #16]	; (115c <system_gclk_chan_enable+0x2c>)
    114a:	4798      	blx	r3
    114c:	bd10      	pop	{r4, pc}
    114e:	46c0      	nop			; (mov r8, r8)
    1150:	00000d71 	.word	0x00000d71
    1154:	40000c02 	.word	0x40000c02
    1158:	40000c00 	.word	0x40000c00
    115c:	00000da5 	.word	0x00000da5

00001160 <system_gclk_chan_disable>:
    1160:	b510      	push	{r4, lr}
    1162:	0004      	movs	r4, r0
    1164:	4b0e      	ldr	r3, [pc, #56]	; (11a0 <system_gclk_chan_disable+0x40>)
    1166:	4798      	blx	r3
    1168:	4b0e      	ldr	r3, [pc, #56]	; (11a4 <system_gclk_chan_disable+0x44>)
    116a:	4a0f      	ldr	r2, [pc, #60]	; (11a8 <system_gclk_chan_disable+0x48>)
    116c:	701c      	strb	r4, [r3, #0]
    116e:	4b0f      	ldr	r3, [pc, #60]	; (11ac <system_gclk_chan_disable+0x4c>)
    1170:	4c0f      	ldr	r4, [pc, #60]	; (11b0 <system_gclk_chan_disable+0x50>)
    1172:	8858      	ldrh	r0, [r3, #2]
    1174:	8859      	ldrh	r1, [r3, #2]
    1176:	0500      	lsls	r0, r0, #20
    1178:	4011      	ands	r1, r2
    117a:	8059      	strh	r1, [r3, #2]
    117c:	8859      	ldrh	r1, [r3, #2]
    117e:	0f00      	lsrs	r0, r0, #28
    1180:	4021      	ands	r1, r4
    1182:	8059      	strh	r1, [r3, #2]
    1184:	0011      	movs	r1, r2
    1186:	2280      	movs	r2, #128	; 0x80
    1188:	01d2      	lsls	r2, r2, #7
    118a:	885c      	ldrh	r4, [r3, #2]
    118c:	4214      	tst	r4, r2
    118e:	d1fc      	bne.n	118a <system_gclk_chan_disable+0x2a>
    1190:	885a      	ldrh	r2, [r3, #2]
    1192:	0200      	lsls	r0, r0, #8
    1194:	400a      	ands	r2, r1
    1196:	4302      	orrs	r2, r0
    1198:	805a      	strh	r2, [r3, #2]
    119a:	4b06      	ldr	r3, [pc, #24]	; (11b4 <system_gclk_chan_disable+0x54>)
    119c:	4798      	blx	r3
    119e:	bd10      	pop	{r4, pc}
    11a0:	00000d71 	.word	0x00000d71
    11a4:	40000c02 	.word	0x40000c02
    11a8:	fffff0ff 	.word	0xfffff0ff
    11ac:	40000c00 	.word	0x40000c00
    11b0:	ffffbfff 	.word	0xffffbfff
    11b4:	00000da5 	.word	0x00000da5

000011b8 <system_gclk_chan_set_config>:
    11b8:	b510      	push	{r4, lr}
    11ba:	780c      	ldrb	r4, [r1, #0]
    11bc:	4b03      	ldr	r3, [pc, #12]	; (11cc <system_gclk_chan_set_config+0x14>)
    11be:	0224      	lsls	r4, r4, #8
    11c0:	4304      	orrs	r4, r0
    11c2:	4798      	blx	r3
    11c4:	4b02      	ldr	r3, [pc, #8]	; (11d0 <system_gclk_chan_set_config+0x18>)
    11c6:	b2a4      	uxth	r4, r4
    11c8:	805c      	strh	r4, [r3, #2]
    11ca:	bd10      	pop	{r4, pc}
    11cc:	00001161 	.word	0x00001161
    11d0:	40000c00 	.word	0x40000c00

000011d4 <system_gclk_chan_get_hz>:
    11d4:	b510      	push	{r4, lr}
    11d6:	0004      	movs	r4, r0
    11d8:	4b06      	ldr	r3, [pc, #24]	; (11f4 <system_gclk_chan_get_hz+0x20>)
    11da:	4798      	blx	r3
    11dc:	4b06      	ldr	r3, [pc, #24]	; (11f8 <system_gclk_chan_get_hz+0x24>)
    11de:	701c      	strb	r4, [r3, #0]
    11e0:	4b06      	ldr	r3, [pc, #24]	; (11fc <system_gclk_chan_get_hz+0x28>)
    11e2:	885c      	ldrh	r4, [r3, #2]
    11e4:	4b06      	ldr	r3, [pc, #24]	; (1200 <system_gclk_chan_get_hz+0x2c>)
    11e6:	0524      	lsls	r4, r4, #20
    11e8:	0f24      	lsrs	r4, r4, #28
    11ea:	4798      	blx	r3
    11ec:	0020      	movs	r0, r4
    11ee:	4b05      	ldr	r3, [pc, #20]	; (1204 <system_gclk_chan_get_hz+0x30>)
    11f0:	4798      	blx	r3
    11f2:	bd10      	pop	{r4, pc}
    11f4:	00000d71 	.word	0x00000d71
    11f8:	40000c02 	.word	0x40000c02
    11fc:	40000c00 	.word	0x40000c00
    1200:	00000da5 	.word	0x00000da5
    1204:	000010a9 	.word	0x000010a9

00001208 <_system_pinmux_config>:
    1208:	78d3      	ldrb	r3, [r2, #3]
    120a:	b530      	push	{r4, r5, lr}
    120c:	2b00      	cmp	r3, #0
    120e:	d135      	bne.n	127c <_system_pinmux_config+0x74>
    1210:	7814      	ldrb	r4, [r2, #0]
    1212:	2c80      	cmp	r4, #128	; 0x80
    1214:	d003      	beq.n	121e <_system_pinmux_config+0x16>
    1216:	2380      	movs	r3, #128	; 0x80
    1218:	0624      	lsls	r4, r4, #24
    121a:	025b      	lsls	r3, r3, #9
    121c:	4323      	orrs	r3, r4
    121e:	2502      	movs	r5, #2
    1220:	7854      	ldrb	r4, [r2, #1]
    1222:	43ac      	bics	r4, r5
    1224:	d106      	bne.n	1234 <_system_pinmux_config+0x2c>
    1226:	7894      	ldrb	r4, [r2, #2]
    1228:	2c00      	cmp	r4, #0
    122a:	d124      	bne.n	1276 <_system_pinmux_config+0x6e>
    122c:	2480      	movs	r4, #128	; 0x80
    122e:	02a4      	lsls	r4, r4, #10
    1230:	4323      	orrs	r3, r4
    1232:	6041      	str	r1, [r0, #4]
    1234:	7854      	ldrb	r4, [r2, #1]
    1236:	3c01      	subs	r4, #1
    1238:	2c01      	cmp	r4, #1
    123a:	d801      	bhi.n	1240 <_system_pinmux_config+0x38>
    123c:	4c12      	ldr	r4, [pc, #72]	; (1288 <_system_pinmux_config+0x80>)
    123e:	4023      	ands	r3, r4
    1240:	24a0      	movs	r4, #160	; 0xa0
    1242:	b28d      	uxth	r5, r1
    1244:	05e4      	lsls	r4, r4, #23
    1246:	432c      	orrs	r4, r5
    1248:	431c      	orrs	r4, r3
    124a:	6284      	str	r4, [r0, #40]	; 0x28
    124c:	24d0      	movs	r4, #208	; 0xd0
    124e:	0c0d      	lsrs	r5, r1, #16
    1250:	0624      	lsls	r4, r4, #24
    1252:	432c      	orrs	r4, r5
    1254:	431c      	orrs	r4, r3
    1256:	6284      	str	r4, [r0, #40]	; 0x28
    1258:	78d4      	ldrb	r4, [r2, #3]
    125a:	2c00      	cmp	r4, #0
    125c:	d10a      	bne.n	1274 <_system_pinmux_config+0x6c>
    125e:	035b      	lsls	r3, r3, #13
    1260:	d503      	bpl.n	126a <_system_pinmux_config+0x62>
    1262:	7893      	ldrb	r3, [r2, #2]
    1264:	2b01      	cmp	r3, #1
    1266:	d10c      	bne.n	1282 <_system_pinmux_config+0x7a>
    1268:	6181      	str	r1, [r0, #24]
    126a:	7853      	ldrb	r3, [r2, #1]
    126c:	3b01      	subs	r3, #1
    126e:	2b01      	cmp	r3, #1
    1270:	d800      	bhi.n	1274 <_system_pinmux_config+0x6c>
    1272:	6081      	str	r1, [r0, #8]
    1274:	bd30      	pop	{r4, r5, pc}
    1276:	24c0      	movs	r4, #192	; 0xc0
    1278:	02e4      	lsls	r4, r4, #11
    127a:	e7d9      	b.n	1230 <_system_pinmux_config+0x28>
    127c:	6041      	str	r1, [r0, #4]
    127e:	2300      	movs	r3, #0
    1280:	e7de      	b.n	1240 <_system_pinmux_config+0x38>
    1282:	6141      	str	r1, [r0, #20]
    1284:	e7f1      	b.n	126a <_system_pinmux_config+0x62>
    1286:	46c0      	nop			; (mov r8, r8)
    1288:	fffbffff 	.word	0xfffbffff

0000128c <system_pinmux_pin_set_config>:
    128c:	b510      	push	{r4, lr}
    128e:	0003      	movs	r3, r0
    1290:	000a      	movs	r2, r1
    1292:	0944      	lsrs	r4, r0, #5
    1294:	09c1      	lsrs	r1, r0, #7
    1296:	2000      	movs	r0, #0
    1298:	4281      	cmp	r1, r0
    129a:	d102      	bne.n	12a2 <system_pinmux_pin_set_config+0x16>
    129c:	4904      	ldr	r1, [pc, #16]	; (12b0 <system_pinmux_pin_set_config+0x24>)
    129e:	01e0      	lsls	r0, r4, #7
    12a0:	1840      	adds	r0, r0, r1
    12a2:	211f      	movs	r1, #31
    12a4:	400b      	ands	r3, r1
    12a6:	391e      	subs	r1, #30
    12a8:	4099      	lsls	r1, r3
    12aa:	4b02      	ldr	r3, [pc, #8]	; (12b4 <system_pinmux_pin_set_config+0x28>)
    12ac:	4798      	blx	r3
    12ae:	bd10      	pop	{r4, pc}
    12b0:	41004400 	.word	0x41004400
    12b4:	00001209 	.word	0x00001209

000012b8 <_system_dummy_init>:
    12b8:	4770      	bx	lr
	...

000012bc <system_init>:
    12bc:	b510      	push	{r4, lr}
    12be:	4b05      	ldr	r3, [pc, #20]	; (12d4 <system_init+0x18>)
    12c0:	4798      	blx	r3
    12c2:	4b05      	ldr	r3, [pc, #20]	; (12d8 <system_init+0x1c>)
    12c4:	4798      	blx	r3
    12c6:	4b05      	ldr	r3, [pc, #20]	; (12dc <system_init+0x20>)
    12c8:	4798      	blx	r3
    12ca:	4b05      	ldr	r3, [pc, #20]	; (12e0 <system_init+0x24>)
    12cc:	4798      	blx	r3
    12ce:	4b05      	ldr	r3, [pc, #20]	; (12e4 <system_init+0x28>)
    12d0:	4798      	blx	r3
    12d2:	bd10      	pop	{r4, pc}
    12d4:	00000f09 	.word	0x00000f09
    12d8:	00000d19 	.word	0x00000d19
    12dc:	000012b9 	.word	0x000012b9
    12e0:	00000b41 	.word	0x00000b41
    12e4:	000012b9 	.word	0x000012b9

000012e8 <Dummy_Handler>:
    12e8:	e7fe      	b.n	12e8 <Dummy_Handler>
	...

000012ec <Reset_Handler>:
    12ec:	4811      	ldr	r0, [pc, #68]	; (1334 <Reset_Handler+0x48>)
    12ee:	4912      	ldr	r1, [pc, #72]	; (1338 <Reset_Handler+0x4c>)
    12f0:	b570      	push	{r4, r5, r6, lr}
    12f2:	4288      	cmp	r0, r1
    12f4:	d004      	beq.n	1300 <Reset_Handler+0x14>
    12f6:	2300      	movs	r3, #0
    12f8:	4c10      	ldr	r4, [pc, #64]	; (133c <Reset_Handler+0x50>)
    12fa:	18ca      	adds	r2, r1, r3
    12fc:	42a2      	cmp	r2, r4
    12fe:	d313      	bcc.n	1328 <Reset_Handler+0x3c>
    1300:	2100      	movs	r1, #0
    1302:	4b0f      	ldr	r3, [pc, #60]	; (1340 <Reset_Handler+0x54>)
    1304:	4a0f      	ldr	r2, [pc, #60]	; (1344 <Reset_Handler+0x58>)
    1306:	4293      	cmp	r3, r2
    1308:	d312      	bcc.n	1330 <Reset_Handler+0x44>
    130a:	21ff      	movs	r1, #255	; 0xff
    130c:	4b0e      	ldr	r3, [pc, #56]	; (1348 <Reset_Handler+0x5c>)
    130e:	4a0f      	ldr	r2, [pc, #60]	; (134c <Reset_Handler+0x60>)
    1310:	438b      	bics	r3, r1
    1312:	6093      	str	r3, [r2, #8]
    1314:	2380      	movs	r3, #128	; 0x80
    1316:	4a0e      	ldr	r2, [pc, #56]	; (1350 <Reset_Handler+0x64>)
    1318:	6851      	ldr	r1, [r2, #4]
    131a:	430b      	orrs	r3, r1
    131c:	6053      	str	r3, [r2, #4]
    131e:	4b0d      	ldr	r3, [pc, #52]	; (1354 <Reset_Handler+0x68>)
    1320:	4798      	blx	r3
    1322:	4b0d      	ldr	r3, [pc, #52]	; (1358 <Reset_Handler+0x6c>)
    1324:	4798      	blx	r3
    1326:	e7fe      	b.n	1326 <Reset_Handler+0x3a>
    1328:	58c5      	ldr	r5, [r0, r3]
    132a:	3304      	adds	r3, #4
    132c:	6015      	str	r5, [r2, #0]
    132e:	e7e4      	b.n	12fa <Reset_Handler+0xe>
    1330:	c302      	stmia	r3!, {r1}
    1332:	e7e8      	b.n	1306 <Reset_Handler+0x1a>
    1334:	0000160c 	.word	0x0000160c
    1338:	20000000 	.word	0x20000000
    133c:	2000000c 	.word	0x2000000c
    1340:	2000000c 	.word	0x2000000c
    1344:	2000013c 	.word	0x2000013c
    1348:	00000000 	.word	0x00000000
    134c:	e000ed00 	.word	0xe000ed00
    1350:	41004000 	.word	0x41004000
    1354:	0000158d 	.word	0x0000158d
    1358:	0000144d 	.word	0x0000144d

0000135c <extint_detection_callback>:
    135c:	4b0d      	ldr	r3, [pc, #52]	; (1394 <extint_detection_callback+0x38>)
    135e:	b510      	push	{r4, lr}
    1360:	200a      	movs	r0, #10
    1362:	4798      	blx	r3
    1364:	2280      	movs	r2, #128	; 0x80
    1366:	4b0c      	ldr	r3, [pc, #48]	; (1398 <extint_detection_callback+0x3c>)
    1368:	01d2      	lsls	r2, r2, #7
    136a:	6a19      	ldr	r1, [r3, #32]
    136c:	0409      	lsls	r1, r1, #16
    136e:	d50e      	bpl.n	138e <extint_detection_callback+0x32>
    1370:	619a      	str	r2, [r3, #24]
    1372:	4c0a      	ldr	r4, [pc, #40]	; (139c <extint_detection_callback+0x40>)
    1374:	2205      	movs	r2, #5
    1376:	7820      	ldrb	r0, [r4, #0]
    1378:	4909      	ldr	r1, [pc, #36]	; (13a0 <extint_detection_callback+0x44>)
    137a:	4b0a      	ldr	r3, [pc, #40]	; (13a4 <extint_detection_callback+0x48>)
    137c:	4798      	blx	r3
    137e:	4b0a      	ldr	r3, [pc, #40]	; (13a8 <extint_detection_callback+0x4c>)
    1380:	7820      	ldrb	r0, [r4, #0]
    1382:	7819      	ldrb	r1, [r3, #0]
    1384:	4a09      	ldr	r2, [pc, #36]	; (13ac <extint_detection_callback+0x50>)
    1386:	2305      	movs	r3, #5
    1388:	4c09      	ldr	r4, [pc, #36]	; (13b0 <extint_detection_callback+0x54>)
    138a:	47a0      	blx	r4
    138c:	bd10      	pop	{r4, pc}
    138e:	615a      	str	r2, [r3, #20]
    1390:	e7ef      	b.n	1372 <extint_detection_callback+0x16>
    1392:	46c0      	nop			; (mov r8, r8)
    1394:	00000ae9 	.word	0x00000ae9
    1398:	41004400 	.word	0x41004400
    139c:	20000009 	.word	0x20000009
    13a0:	20000131 	.word	0x20000131
    13a4:	000009cd 	.word	0x000009cd
    13a8:	20000064 	.word	0x20000064
    13ac:	20000136 	.word	0x20000136
    13b0:	00000a39 	.word	0x00000a39

000013b4 <configure_extint_channel>:
    13b4:	b51f      	push	{r0, r1, r2, r3, r4, lr}
    13b6:	ac01      	add	r4, sp, #4
    13b8:	0020      	movs	r0, r4
    13ba:	4b06      	ldr	r3, [pc, #24]	; (13d4 <configure_extint_channel+0x20>)
    13bc:	4798      	blx	r3
    13be:	2300      	movs	r3, #0
    13c0:	200f      	movs	r0, #15
    13c2:	6063      	str	r3, [r4, #4]
    13c4:	3301      	adds	r3, #1
    13c6:	7223      	strb	r3, [r4, #8]
    13c8:	72e3      	strb	r3, [r4, #11]
    13ca:	0021      	movs	r1, r4
    13cc:	4b02      	ldr	r3, [pc, #8]	; (13d8 <configure_extint_channel+0x24>)
    13ce:	9001      	str	r0, [sp, #4]
    13d0:	4798      	blx	r3
    13d2:	bd1f      	pop	{r0, r1, r2, r3, r4, pc}
    13d4:	00000ba9 	.word	0x00000ba9
    13d8:	00000bbd 	.word	0x00000bbd

000013dc <configure_extint_callbacks>:
    13dc:	b510      	push	{r4, lr}
    13de:	2200      	movs	r2, #0
    13e0:	210f      	movs	r1, #15
    13e2:	4b04      	ldr	r3, [pc, #16]	; (13f4 <configure_extint_callbacks+0x18>)
    13e4:	4804      	ldr	r0, [pc, #16]	; (13f8 <configure_extint_callbacks+0x1c>)
    13e6:	4798      	blx	r3
    13e8:	2100      	movs	r1, #0
    13ea:	200f      	movs	r0, #15
    13ec:	4b03      	ldr	r3, [pc, #12]	; (13fc <configure_extint_callbacks+0x20>)
    13ee:	4798      	blx	r3
    13f0:	bd10      	pop	{r4, pc}
    13f2:	46c0      	nop			; (mov r8, r8)
    13f4:	00000c4d 	.word	0x00000c4d
    13f8:	0000135d 	.word	0x0000135d
    13fc:	00000c75 	.word	0x00000c75

00001400 <SysTick_Handler>:
    1400:	4770      	bx	lr
	...

00001404 <sys_config>:
    1404:	b510      	push	{r4, lr}
    1406:	4b0c      	ldr	r3, [pc, #48]	; (1438 <sys_config+0x34>)
    1408:	4798      	blx	r3
    140a:	4b0c      	ldr	r3, [pc, #48]	; (143c <sys_config+0x38>)
    140c:	4798      	blx	r3
    140e:	2201      	movs	r2, #1
    1410:	4b0b      	ldr	r3, [pc, #44]	; (1440 <sys_config+0x3c>)
    1412:	701a      	strb	r2, [r3, #0]
    1414:	f3bf 8f5f 	dmb	sy
    1418:	b662      	cpsie	i
    141a:	4b0a      	ldr	r3, [pc, #40]	; (1444 <sys_config+0x40>)
    141c:	4798      	blx	r3
    141e:	22a5      	movs	r2, #165	; 0xa5
    1420:	4b09      	ldr	r3, [pc, #36]	; (1448 <sys_config+0x44>)
    1422:	701a      	strb	r2, [r3, #0]
    1424:	3210      	adds	r2, #16
    1426:	705a      	strb	r2, [r3, #1]
    1428:	3210      	adds	r2, #16
    142a:	709a      	strb	r2, [r3, #2]
    142c:	3210      	adds	r2, #16
    142e:	70da      	strb	r2, [r3, #3]
    1430:	3210      	adds	r2, #16
    1432:	711a      	strb	r2, [r3, #4]
    1434:	bd10      	pop	{r4, pc}
    1436:	46c0      	nop			; (mov r8, r8)
    1438:	000013b5 	.word	0x000013b5
    143c:	000013dd 	.word	0x000013dd
    1440:	20000008 	.word	0x20000008
    1444:	00000935 	.word	0x00000935
    1448:	20000131 	.word	0x20000131

0000144c <main>:
    144c:	4b02      	ldr	r3, [pc, #8]	; (1458 <main+0xc>)
    144e:	b510      	push	{r4, lr}
    1450:	4798      	blx	r3
    1452:	4b02      	ldr	r3, [pc, #8]	; (145c <main+0x10>)
    1454:	4798      	blx	r3
    1456:	e7fe      	b.n	1456 <main+0xa>
    1458:	000012bd 	.word	0x000012bd
    145c:	00001405 	.word	0x00001405

00001460 <__gnu_thumb1_case_uqi>:
    1460:	b402      	push	{r1}
    1462:	4671      	mov	r1, lr
    1464:	0849      	lsrs	r1, r1, #1
    1466:	0049      	lsls	r1, r1, #1
    1468:	5c09      	ldrb	r1, [r1, r0]
    146a:	0049      	lsls	r1, r1, #1
    146c:	448e      	add	lr, r1
    146e:	bc02      	pop	{r1}
    1470:	4770      	bx	lr
    1472:	46c0      	nop			; (mov r8, r8)

00001474 <__udivsi3>:
    1474:	2200      	movs	r2, #0
    1476:	0843      	lsrs	r3, r0, #1
    1478:	428b      	cmp	r3, r1
    147a:	d374      	bcc.n	1566 <__udivsi3+0xf2>
    147c:	0903      	lsrs	r3, r0, #4
    147e:	428b      	cmp	r3, r1
    1480:	d35f      	bcc.n	1542 <__udivsi3+0xce>
    1482:	0a03      	lsrs	r3, r0, #8
    1484:	428b      	cmp	r3, r1
    1486:	d344      	bcc.n	1512 <__udivsi3+0x9e>
    1488:	0b03      	lsrs	r3, r0, #12
    148a:	428b      	cmp	r3, r1
    148c:	d328      	bcc.n	14e0 <__udivsi3+0x6c>
    148e:	0c03      	lsrs	r3, r0, #16
    1490:	428b      	cmp	r3, r1
    1492:	d30d      	bcc.n	14b0 <__udivsi3+0x3c>
    1494:	22ff      	movs	r2, #255	; 0xff
    1496:	0209      	lsls	r1, r1, #8
    1498:	ba12      	rev	r2, r2
    149a:	0c03      	lsrs	r3, r0, #16
    149c:	428b      	cmp	r3, r1
    149e:	d302      	bcc.n	14a6 <__udivsi3+0x32>
    14a0:	1212      	asrs	r2, r2, #8
    14a2:	0209      	lsls	r1, r1, #8
    14a4:	d065      	beq.n	1572 <__udivsi3+0xfe>
    14a6:	0b03      	lsrs	r3, r0, #12
    14a8:	428b      	cmp	r3, r1
    14aa:	d319      	bcc.n	14e0 <__udivsi3+0x6c>
    14ac:	e000      	b.n	14b0 <__udivsi3+0x3c>
    14ae:	0a09      	lsrs	r1, r1, #8
    14b0:	0bc3      	lsrs	r3, r0, #15
    14b2:	428b      	cmp	r3, r1
    14b4:	d301      	bcc.n	14ba <__udivsi3+0x46>
    14b6:	03cb      	lsls	r3, r1, #15
    14b8:	1ac0      	subs	r0, r0, r3
    14ba:	4152      	adcs	r2, r2
    14bc:	0b83      	lsrs	r3, r0, #14
    14be:	428b      	cmp	r3, r1
    14c0:	d301      	bcc.n	14c6 <__udivsi3+0x52>
    14c2:	038b      	lsls	r3, r1, #14
    14c4:	1ac0      	subs	r0, r0, r3
    14c6:	4152      	adcs	r2, r2
    14c8:	0b43      	lsrs	r3, r0, #13
    14ca:	428b      	cmp	r3, r1
    14cc:	d301      	bcc.n	14d2 <__udivsi3+0x5e>
    14ce:	034b      	lsls	r3, r1, #13
    14d0:	1ac0      	subs	r0, r0, r3
    14d2:	4152      	adcs	r2, r2
    14d4:	0b03      	lsrs	r3, r0, #12
    14d6:	428b      	cmp	r3, r1
    14d8:	d301      	bcc.n	14de <__udivsi3+0x6a>
    14da:	030b      	lsls	r3, r1, #12
    14dc:	1ac0      	subs	r0, r0, r3
    14de:	4152      	adcs	r2, r2
    14e0:	0ac3      	lsrs	r3, r0, #11
    14e2:	428b      	cmp	r3, r1
    14e4:	d301      	bcc.n	14ea <__udivsi3+0x76>
    14e6:	02cb      	lsls	r3, r1, #11
    14e8:	1ac0      	subs	r0, r0, r3
    14ea:	4152      	adcs	r2, r2
    14ec:	0a83      	lsrs	r3, r0, #10
    14ee:	428b      	cmp	r3, r1
    14f0:	d301      	bcc.n	14f6 <__udivsi3+0x82>
    14f2:	028b      	lsls	r3, r1, #10
    14f4:	1ac0      	subs	r0, r0, r3
    14f6:	4152      	adcs	r2, r2
    14f8:	0a43      	lsrs	r3, r0, #9
    14fa:	428b      	cmp	r3, r1
    14fc:	d301      	bcc.n	1502 <__udivsi3+0x8e>
    14fe:	024b      	lsls	r3, r1, #9
    1500:	1ac0      	subs	r0, r0, r3
    1502:	4152      	adcs	r2, r2
    1504:	0a03      	lsrs	r3, r0, #8
    1506:	428b      	cmp	r3, r1
    1508:	d301      	bcc.n	150e <__udivsi3+0x9a>
    150a:	020b      	lsls	r3, r1, #8
    150c:	1ac0      	subs	r0, r0, r3
    150e:	4152      	adcs	r2, r2
    1510:	d2cd      	bcs.n	14ae <__udivsi3+0x3a>
    1512:	09c3      	lsrs	r3, r0, #7
    1514:	428b      	cmp	r3, r1
    1516:	d301      	bcc.n	151c <__udivsi3+0xa8>
    1518:	01cb      	lsls	r3, r1, #7
    151a:	1ac0      	subs	r0, r0, r3
    151c:	4152      	adcs	r2, r2
    151e:	0983      	lsrs	r3, r0, #6
    1520:	428b      	cmp	r3, r1
    1522:	d301      	bcc.n	1528 <__udivsi3+0xb4>
    1524:	018b      	lsls	r3, r1, #6
    1526:	1ac0      	subs	r0, r0, r3
    1528:	4152      	adcs	r2, r2
    152a:	0943      	lsrs	r3, r0, #5
    152c:	428b      	cmp	r3, r1
    152e:	d301      	bcc.n	1534 <__udivsi3+0xc0>
    1530:	014b      	lsls	r3, r1, #5
    1532:	1ac0      	subs	r0, r0, r3
    1534:	4152      	adcs	r2, r2
    1536:	0903      	lsrs	r3, r0, #4
    1538:	428b      	cmp	r3, r1
    153a:	d301      	bcc.n	1540 <__udivsi3+0xcc>
    153c:	010b      	lsls	r3, r1, #4
    153e:	1ac0      	subs	r0, r0, r3
    1540:	4152      	adcs	r2, r2
    1542:	08c3      	lsrs	r3, r0, #3
    1544:	428b      	cmp	r3, r1
    1546:	d301      	bcc.n	154c <__udivsi3+0xd8>
    1548:	00cb      	lsls	r3, r1, #3
    154a:	1ac0      	subs	r0, r0, r3
    154c:	4152      	adcs	r2, r2
    154e:	0883      	lsrs	r3, r0, #2
    1550:	428b      	cmp	r3, r1
    1552:	d301      	bcc.n	1558 <__udivsi3+0xe4>
    1554:	008b      	lsls	r3, r1, #2
    1556:	1ac0      	subs	r0, r0, r3
    1558:	4152      	adcs	r2, r2
    155a:	0843      	lsrs	r3, r0, #1
    155c:	428b      	cmp	r3, r1
    155e:	d301      	bcc.n	1564 <__udivsi3+0xf0>
    1560:	004b      	lsls	r3, r1, #1
    1562:	1ac0      	subs	r0, r0, r3
    1564:	4152      	adcs	r2, r2
    1566:	1a41      	subs	r1, r0, r1
    1568:	d200      	bcs.n	156c <__udivsi3+0xf8>
    156a:	4601      	mov	r1, r0
    156c:	4152      	adcs	r2, r2
    156e:	4610      	mov	r0, r2
    1570:	4770      	bx	lr
    1572:	e7ff      	b.n	1574 <__udivsi3+0x100>
    1574:	b501      	push	{r0, lr}
    1576:	2000      	movs	r0, #0
    1578:	f000 f806 	bl	1588 <__aeabi_idiv0>
    157c:	bd02      	pop	{r1, pc}
    157e:	46c0      	nop			; (mov r8, r8)

00001580 <__aeabi_uidivmod>:
    1580:	2900      	cmp	r1, #0
    1582:	d0f7      	beq.n	1574 <__udivsi3+0x100>
    1584:	e776      	b.n	1474 <__udivsi3>
    1586:	4770      	bx	lr

00001588 <__aeabi_idiv0>:
    1588:	4770      	bx	lr
    158a:	46c0      	nop			; (mov r8, r8)

0000158c <__libc_init_array>:
    158c:	b570      	push	{r4, r5, r6, lr}
    158e:	2600      	movs	r6, #0
    1590:	4d0c      	ldr	r5, [pc, #48]	; (15c4 <__libc_init_array+0x38>)
    1592:	4c0d      	ldr	r4, [pc, #52]	; (15c8 <__libc_init_array+0x3c>)
    1594:	1b64      	subs	r4, r4, r5
    1596:	10a4      	asrs	r4, r4, #2
    1598:	42a6      	cmp	r6, r4
    159a:	d109      	bne.n	15b0 <__libc_init_array+0x24>
    159c:	2600      	movs	r6, #0
    159e:	f000 f825 	bl	15ec <_init>
    15a2:	4d0a      	ldr	r5, [pc, #40]	; (15cc <__libc_init_array+0x40>)
    15a4:	4c0a      	ldr	r4, [pc, #40]	; (15d0 <__libc_init_array+0x44>)
    15a6:	1b64      	subs	r4, r4, r5
    15a8:	10a4      	asrs	r4, r4, #2
    15aa:	42a6      	cmp	r6, r4
    15ac:	d105      	bne.n	15ba <__libc_init_array+0x2e>
    15ae:	bd70      	pop	{r4, r5, r6, pc}
    15b0:	00b3      	lsls	r3, r6, #2
    15b2:	58eb      	ldr	r3, [r5, r3]
    15b4:	4798      	blx	r3
    15b6:	3601      	adds	r6, #1
    15b8:	e7ee      	b.n	1598 <__libc_init_array+0xc>
    15ba:	00b3      	lsls	r3, r6, #2
    15bc:	58eb      	ldr	r3, [r5, r3]
    15be:	4798      	blx	r3
    15c0:	3601      	adds	r6, #1
    15c2:	e7f2      	b.n	15aa <__libc_init_array+0x1e>
    15c4:	000015f8 	.word	0x000015f8
    15c8:	000015f8 	.word	0x000015f8
    15cc:	000015f8 	.word	0x000015f8
    15d0:	000015fc 	.word	0x000015fc
    15d4:	42000800 	.word	0x42000800
    15d8:	42000c00 	.word	0x42000c00
    15dc:	42001000 	.word	0x42001000
    15e0:	42001400 	.word	0x42001400
    15e4:	42001800 	.word	0x42001800
    15e8:	42001c00 	.word	0x42001c00

000015ec <_init>:
    15ec:	b5f8      	push	{r3, r4, r5, r6, r7, lr}
    15ee:	46c0      	nop			; (mov r8, r8)
    15f0:	bcf8      	pop	{r3, r4, r5, r6, r7}
    15f2:	bc08      	pop	{r3}
    15f4:	469e      	mov	lr, r3
    15f6:	4770      	bx	lr

000015f8 <__init_array_start>:
    15f8:	000000cd 	.word	0x000000cd

000015fc <_fini>:
    15fc:	b5f8      	push	{r3, r4, r5, r6, r7, lr}
    15fe:	46c0      	nop			; (mov r8, r8)
    1600:	bcf8      	pop	{r3, r4, r5, r6, r7}
    1602:	bc08      	pop	{r3}
    1604:	469e      	mov	lr, r3
    1606:	4770      	bx	lr

00001608 <__fini_array_start>:
    1608:	000000a5 	.word	0x000000a5
